
ctarget:     file format elf64-x86-64


Disassembly of section .init:

0000000000401000 <_init>:
  401000:	f3 0f 1e fa          	endbr64 
  401004:	48 83 ec 08          	sub    $0x8,%rsp
  401008:	48 8b 05 e9 5f 00 00 	mov    0x5fe9(%rip),%rax        # 406ff8 <__gmon_start__>
  40100f:	48 85 c0             	test   %rax,%rax
  401012:	74 02                	je     401016 <_init+0x16>
  401014:	ff d0                	callq  *%rax
  401016:	48 83 c4 08          	add    $0x8,%rsp
  40101a:	c3                   	retq   

Disassembly of section .plt:

0000000000401020 <.plt>:
  401020:	ff 35 e2 5f 00 00    	pushq  0x5fe2(%rip)        # 407008 <_GLOBAL_OFFSET_TABLE_+0x8>
  401026:	ff 25 e4 5f 00 00    	jmpq   *0x5fe4(%rip)        # 407010 <_GLOBAL_OFFSET_TABLE_+0x10>
  40102c:	0f 1f 40 00          	nopl   0x0(%rax)

0000000000401030 <__errno_location@plt>:
  401030:	ff 25 e2 5f 00 00    	jmpq   *0x5fe2(%rip)        # 407018 <__errno_location@GLIBC_2.2.5>
  401036:	68 00 00 00 00       	pushq  $0x0
  40103b:	e9 e0 ff ff ff       	jmpq   401020 <.plt>

0000000000401040 <srandom@plt>:
  401040:	ff 25 da 5f 00 00    	jmpq   *0x5fda(%rip)        # 407020 <srandom@GLIBC_2.2.5>
  401046:	68 01 00 00 00       	pushq  $0x1
  40104b:	e9 d0 ff ff ff       	jmpq   401020 <.plt>

0000000000401050 <strncmp@plt>:
  401050:	ff 25 d2 5f 00 00    	jmpq   *0x5fd2(%rip)        # 407028 <strncmp@GLIBC_2.2.5>
  401056:	68 02 00 00 00       	pushq  $0x2
  40105b:	e9 c0 ff ff ff       	jmpq   401020 <.plt>

0000000000401060 <strcpy@plt>:
  401060:	ff 25 ca 5f 00 00    	jmpq   *0x5fca(%rip)        # 407030 <strcpy@GLIBC_2.2.5>
  401066:	68 03 00 00 00       	pushq  $0x3
  40106b:	e9 b0 ff ff ff       	jmpq   401020 <.plt>

0000000000401070 <puts@plt>:
  401070:	ff 25 c2 5f 00 00    	jmpq   *0x5fc2(%rip)        # 407038 <puts@GLIBC_2.2.5>
  401076:	68 04 00 00 00       	pushq  $0x4
  40107b:	e9 a0 ff ff ff       	jmpq   401020 <.plt>

0000000000401080 <write@plt>:
  401080:	ff 25 ba 5f 00 00    	jmpq   *0x5fba(%rip)        # 407040 <write@GLIBC_2.2.5>
  401086:	68 05 00 00 00       	pushq  $0x5
  40108b:	e9 90 ff ff ff       	jmpq   401020 <.plt>

0000000000401090 <__stack_chk_fail@plt>:
  401090:	ff 25 b2 5f 00 00    	jmpq   *0x5fb2(%rip)        # 407048 <__stack_chk_fail@GLIBC_2.4>
  401096:	68 06 00 00 00       	pushq  $0x6
  40109b:	e9 80 ff ff ff       	jmpq   401020 <.plt>

00000000004010a0 <mmap@plt>:
  4010a0:	ff 25 aa 5f 00 00    	jmpq   *0x5faa(%rip)        # 407050 <mmap@GLIBC_2.2.5>
  4010a6:	68 07 00 00 00       	pushq  $0x7
  4010ab:	e9 70 ff ff ff       	jmpq   401020 <.plt>

00000000004010b0 <memset@plt>:
  4010b0:	ff 25 a2 5f 00 00    	jmpq   *0x5fa2(%rip)        # 407058 <memset@GLIBC_2.2.5>
  4010b6:	68 08 00 00 00       	pushq  $0x8
  4010bb:	e9 60 ff ff ff       	jmpq   401020 <.plt>

00000000004010c0 <alarm@plt>:
  4010c0:	ff 25 9a 5f 00 00    	jmpq   *0x5f9a(%rip)        # 407060 <alarm@GLIBC_2.2.5>
  4010c6:	68 09 00 00 00       	pushq  $0x9
  4010cb:	e9 50 ff ff ff       	jmpq   401020 <.plt>

00000000004010d0 <close@plt>:
  4010d0:	ff 25 92 5f 00 00    	jmpq   *0x5f92(%rip)        # 407068 <close@GLIBC_2.2.5>
  4010d6:	68 0a 00 00 00       	pushq  $0xa
  4010db:	e9 40 ff ff ff       	jmpq   401020 <.plt>

00000000004010e0 <read@plt>:
  4010e0:	ff 25 8a 5f 00 00    	jmpq   *0x5f8a(%rip)        # 407070 <read@GLIBC_2.2.5>
  4010e6:	68 0b 00 00 00       	pushq  $0xb
  4010eb:	e9 30 ff ff ff       	jmpq   401020 <.plt>

00000000004010f0 <signal@plt>:
  4010f0:	ff 25 82 5f 00 00    	jmpq   *0x5f82(%rip)        # 407078 <signal@GLIBC_2.2.5>
  4010f6:	68 0c 00 00 00       	pushq  $0xc
  4010fb:	e9 20 ff ff ff       	jmpq   401020 <.plt>

0000000000401100 <gethostbyname@plt>:
  401100:	ff 25 7a 5f 00 00    	jmpq   *0x5f7a(%rip)        # 407080 <gethostbyname@GLIBC_2.2.5>
  401106:	68 0d 00 00 00       	pushq  $0xd
  40110b:	e9 10 ff ff ff       	jmpq   401020 <.plt>

0000000000401110 <__memmove_chk@plt>:
  401110:	ff 25 72 5f 00 00    	jmpq   *0x5f72(%rip)        # 407088 <__memmove_chk@GLIBC_2.3.4>
  401116:	68 0e 00 00 00       	pushq  $0xe
  40111b:	e9 00 ff ff ff       	jmpq   401020 <.plt>

0000000000401120 <strtol@plt>:
  401120:	ff 25 6a 5f 00 00    	jmpq   *0x5f6a(%rip)        # 407090 <strtol@GLIBC_2.2.5>
  401126:	68 0f 00 00 00       	pushq  $0xf
  40112b:	e9 f0 fe ff ff       	jmpq   401020 <.plt>

0000000000401130 <memcpy@plt>:
  401130:	ff 25 62 5f 00 00    	jmpq   *0x5f62(%rip)        # 407098 <memcpy@GLIBC_2.14>
  401136:	68 10 00 00 00       	pushq  $0x10
  40113b:	e9 e0 fe ff ff       	jmpq   401020 <.plt>

0000000000401140 <time@plt>:
  401140:	ff 25 5a 5f 00 00    	jmpq   *0x5f5a(%rip)        # 4070a0 <time@GLIBC_2.2.5>
  401146:	68 11 00 00 00       	pushq  $0x11
  40114b:	e9 d0 fe ff ff       	jmpq   401020 <.plt>

0000000000401150 <random@plt>:
  401150:	ff 25 52 5f 00 00    	jmpq   *0x5f52(%rip)        # 4070a8 <random@GLIBC_2.2.5>
  401156:	68 12 00 00 00       	pushq  $0x12
  40115b:	e9 c0 fe ff ff       	jmpq   401020 <.plt>

0000000000401160 <__isoc99_sscanf@plt>:
  401160:	ff 25 4a 5f 00 00    	jmpq   *0x5f4a(%rip)        # 4070b0 <__isoc99_sscanf@GLIBC_2.7>
  401166:	68 13 00 00 00       	pushq  $0x13
  40116b:	e9 b0 fe ff ff       	jmpq   401020 <.plt>

0000000000401170 <munmap@plt>:
  401170:	ff 25 42 5f 00 00    	jmpq   *0x5f42(%rip)        # 4070b8 <munmap@GLIBC_2.2.5>
  401176:	68 14 00 00 00       	pushq  $0x14
  40117b:	e9 a0 fe ff ff       	jmpq   401020 <.plt>

0000000000401180 <__printf_chk@plt>:
  401180:	ff 25 3a 5f 00 00    	jmpq   *0x5f3a(%rip)        # 4070c0 <__printf_chk@GLIBC_2.3.4>
  401186:	68 15 00 00 00       	pushq  $0x15
  40118b:	e9 90 fe ff ff       	jmpq   401020 <.plt>

0000000000401190 <fopen@plt>:
  401190:	ff 25 32 5f 00 00    	jmpq   *0x5f32(%rip)        # 4070c8 <fopen@GLIBC_2.2.5>
  401196:	68 16 00 00 00       	pushq  $0x16
  40119b:	e9 80 fe ff ff       	jmpq   401020 <.plt>

00000000004011a0 <getopt@plt>:
  4011a0:	ff 25 2a 5f 00 00    	jmpq   *0x5f2a(%rip)        # 4070d0 <getopt@GLIBC_2.2.5>
  4011a6:	68 17 00 00 00       	pushq  $0x17
  4011ab:	e9 70 fe ff ff       	jmpq   401020 <.plt>

00000000004011b0 <strtoul@plt>:
  4011b0:	ff 25 22 5f 00 00    	jmpq   *0x5f22(%rip)        # 4070d8 <strtoul@GLIBC_2.2.5>
  4011b6:	68 18 00 00 00       	pushq  $0x18
  4011bb:	e9 60 fe ff ff       	jmpq   401020 <.plt>

00000000004011c0 <exit@plt>:
  4011c0:	ff 25 1a 5f 00 00    	jmpq   *0x5f1a(%rip)        # 4070e0 <exit@GLIBC_2.2.5>
  4011c6:	68 19 00 00 00       	pushq  $0x19
  4011cb:	e9 50 fe ff ff       	jmpq   401020 <.plt>

00000000004011d0 <connect@plt>:
  4011d0:	ff 25 12 5f 00 00    	jmpq   *0x5f12(%rip)        # 4070e8 <connect@GLIBC_2.2.5>
  4011d6:	68 1a 00 00 00       	pushq  $0x1a
  4011db:	e9 40 fe ff ff       	jmpq   401020 <.plt>

00000000004011e0 <__fprintf_chk@plt>:
  4011e0:	ff 25 0a 5f 00 00    	jmpq   *0x5f0a(%rip)        # 4070f0 <__fprintf_chk@GLIBC_2.3.4>
  4011e6:	68 1b 00 00 00       	pushq  $0x1b
  4011eb:	e9 30 fe ff ff       	jmpq   401020 <.plt>

00000000004011f0 <getc@plt>:
  4011f0:	ff 25 02 5f 00 00    	jmpq   *0x5f02(%rip)        # 4070f8 <getc@GLIBC_2.2.5>
  4011f6:	68 1c 00 00 00       	pushq  $0x1c
  4011fb:	e9 20 fe ff ff       	jmpq   401020 <.plt>

0000000000401200 <__sprintf_chk@plt>:
  401200:	ff 25 fa 5e 00 00    	jmpq   *0x5efa(%rip)        # 407100 <__sprintf_chk@GLIBC_2.3.4>
  401206:	68 1d 00 00 00       	pushq  $0x1d
  40120b:	e9 10 fe ff ff       	jmpq   401020 <.plt>

0000000000401210 <socket@plt>:
  401210:	ff 25 f2 5e 00 00    	jmpq   *0x5ef2(%rip)        # 407108 <socket@GLIBC_2.2.5>
  401216:	68 1e 00 00 00       	pushq  $0x1e
  40121b:	e9 00 fe ff ff       	jmpq   401020 <.plt>

Disassembly of section .text:

0000000000401220 <_start>:
  401220:	f3 0f 1e fa          	endbr64 
  401224:	31 ed                	xor    %ebp,%ebp
  401226:	49 89 d1             	mov    %rdx,%r9
  401229:	5e                   	pop    %rsi
  40122a:	48 89 e2             	mov    %rsp,%rdx
  40122d:	48 83 e4 f0          	and    $0xfffffffffffffff0,%rsp
  401231:	50                   	push   %rax
  401232:	54                   	push   %rsp
  401233:	49 c7 c0 b0 31 40 00 	mov    $0x4031b0,%r8
  40123a:	48 c7 c1 40 31 40 00 	mov    $0x403140,%rcx
  401241:	48 c7 c7 ab 14 40 00 	mov    $0x4014ab,%rdi
  401248:	ff 15 a2 5d 00 00    	callq  *0x5da2(%rip)        # 406ff0 <__libc_start_main@GLIBC_2.2.5>
  40124e:	f4                   	hlt    
  40124f:	90                   	nop

0000000000401250 <_dl_relocate_static_pie>:
  401250:	f3 0f 1e fa          	endbr64 
  401254:	c3                   	retq   
  401255:	66 2e 0f 1f 84 00 00 	nopw   %cs:0x0(%rax,%rax,1)
  40125c:	00 00 00 
  40125f:	90                   	nop

0000000000401260 <deregister_tm_clones>:
  401260:	55                   	push   %rbp
  401261:	b8 90 74 40 00       	mov    $0x407490,%eax
  401266:	48 3d 90 74 40 00    	cmp    $0x407490,%rax
  40126c:	48 89 e5             	mov    %rsp,%rbp
  40126f:	74 17                	je     401288 <deregister_tm_clones+0x28>
  401271:	b8 00 00 00 00       	mov    $0x0,%eax
  401276:	48 85 c0             	test   %rax,%rax
  401279:	74 0d                	je     401288 <deregister_tm_clones+0x28>
  40127b:	5d                   	pop    %rbp
  40127c:	bf 90 74 40 00       	mov    $0x407490,%edi
  401281:	ff e0                	jmpq   *%rax
  401283:	0f 1f 44 00 00       	nopl   0x0(%rax,%rax,1)
  401288:	5d                   	pop    %rbp
  401289:	c3                   	retq   
  40128a:	66 0f 1f 44 00 00    	nopw   0x0(%rax,%rax,1)

0000000000401290 <register_tm_clones>:
  401290:	be 90 74 40 00       	mov    $0x407490,%esi
  401295:	55                   	push   %rbp
  401296:	48 81 ee 90 74 40 00 	sub    $0x407490,%rsi
  40129d:	48 89 e5             	mov    %rsp,%rbp
  4012a0:	48 c1 fe 03          	sar    $0x3,%rsi
  4012a4:	48 89 f0             	mov    %rsi,%rax
  4012a7:	48 c1 e8 3f          	shr    $0x3f,%rax
  4012ab:	48 01 c6             	add    %rax,%rsi
  4012ae:	48 d1 fe             	sar    %rsi
  4012b1:	74 15                	je     4012c8 <register_tm_clones+0x38>
  4012b3:	b8 00 00 00 00       	mov    $0x0,%eax
  4012b8:	48 85 c0             	test   %rax,%rax
  4012bb:	74 0b                	je     4012c8 <register_tm_clones+0x38>
  4012bd:	5d                   	pop    %rbp
  4012be:	bf 90 74 40 00       	mov    $0x407490,%edi
  4012c3:	ff e0                	jmpq   *%rax
  4012c5:	0f 1f 00             	nopl   (%rax)
  4012c8:	5d                   	pop    %rbp
  4012c9:	c3                   	retq   
  4012ca:	66 0f 1f 44 00 00    	nopw   0x0(%rax,%rax,1)

00000000004012d0 <__do_global_dtors_aux>:
  4012d0:	80 3d f1 61 00 00 00 	cmpb   $0x0,0x61f1(%rip)        # 4074c8 <completed.7658>
  4012d7:	75 17                	jne    4012f0 <__do_global_dtors_aux+0x20>
  4012d9:	55                   	push   %rbp
  4012da:	48 89 e5             	mov    %rsp,%rbp
  4012dd:	e8 7e ff ff ff       	callq  401260 <deregister_tm_clones>
  4012e2:	c6 05 df 61 00 00 01 	movb   $0x1,0x61df(%rip)        # 4074c8 <completed.7658>
  4012e9:	5d                   	pop    %rbp
  4012ea:	c3                   	retq   
  4012eb:	0f 1f 44 00 00       	nopl   0x0(%rax,%rax,1)
  4012f0:	f3 c3                	repz retq 
  4012f2:	66 66 2e 0f 1f 84 00 	data16 nopw %cs:0x0(%rax,%rax,1)
  4012f9:	00 00 00 00 
  4012fd:	0f 1f 00             	nopl   (%rax)

0000000000401300 <frame_dummy>:
  401300:	55                   	push   %rbp
  401301:	48 89 e5             	mov    %rsp,%rbp
  401304:	5d                   	pop    %rbp
  401305:	eb 89                	jmp    401290 <register_tm_clones>

0000000000401307 <usage>:
  401307:	48 83 ec 08          	sub    $0x8,%rsp
  40130b:	48 89 fa             	mov    %rdi,%rdx
  40130e:	83 3d f3 61 00 00 00 	cmpl   $0x0,0x61f3(%rip)        # 407508 <is_checker>
  401315:	74 46                	je     40135d <usage+0x56>
  401317:	be 08 40 40 00       	mov    $0x404008,%esi
  40131c:	bf 01 00 00 00       	mov    $0x1,%edi
  401321:	b8 00 00 00 00       	mov    $0x0,%eax
  401326:	e8 55 fe ff ff       	callq  401180 <__printf_chk@plt>
  40132b:	bf 40 40 40 00       	mov    $0x404040,%edi
  401330:	e8 3b fd ff ff       	callq  401070 <puts@plt>
  401335:	bf 40 41 40 00       	mov    $0x404140,%edi
  40133a:	e8 31 fd ff ff       	callq  401070 <puts@plt>
  40133f:	bf 68 40 40 00       	mov    $0x404068,%edi
  401344:	e8 27 fd ff ff       	callq  401070 <puts@plt>
  401349:	bf 5a 41 40 00       	mov    $0x40415a,%edi
  40134e:	e8 1d fd ff ff       	callq  401070 <puts@plt>
  401353:	bf 00 00 00 00       	mov    $0x0,%edi
  401358:	e8 63 fe ff ff       	callq  4011c0 <exit@plt>
  40135d:	be 76 41 40 00       	mov    $0x404176,%esi
  401362:	bf 01 00 00 00       	mov    $0x1,%edi
  401367:	b8 00 00 00 00       	mov    $0x0,%eax
  40136c:	e8 0f fe ff ff       	callq  401180 <__printf_chk@plt>
  401371:	bf 90 40 40 00       	mov    $0x404090,%edi
  401376:	e8 f5 fc ff ff       	callq  401070 <puts@plt>
  40137b:	bf b8 40 40 00       	mov    $0x4040b8,%edi
  401380:	e8 eb fc ff ff       	callq  401070 <puts@plt>
  401385:	bf 94 41 40 00       	mov    $0x404194,%edi
  40138a:	e8 e1 fc ff ff       	callq  401070 <puts@plt>
  40138f:	eb c2                	jmp    401353 <usage+0x4c>

0000000000401391 <initialize_target>:
  401391:	4c 8d 54 24 08       	lea    0x8(%rsp),%r10
  401396:	48 83 e4 f0          	and    $0xfffffffffffffff0,%rsp
  40139a:	41 ff 72 f8          	pushq  -0x8(%r10)
  40139e:	55                   	push   %rbp
  40139f:	48 89 e5             	mov    %rsp,%rbp
  4013a2:	41 54                	push   %r12
  4013a4:	41 52                	push   %r10
  4013a6:	53                   	push   %rbx
  4013a7:	48 81 ec 18 20 00 00 	sub    $0x2018,%rsp
  4013ae:	41 89 f4             	mov    %esi,%r12d
  4013b1:	64 48 8b 04 25 28 00 	mov    %fs:0x28,%rax
  4013b8:	00 00 
  4013ba:	48 89 45 d8          	mov    %rax,-0x28(%rbp)
  4013be:	31 c0                	xor    %eax,%eax
  4013c0:	89 3d 32 61 00 00    	mov    %edi,0x6132(%rip)        # 4074f8 <check_level>
  4013c6:	8b 3d 7c 5d 00 00    	mov    0x5d7c(%rip),%edi        # 407148 <target_id>
  4013cc:	e8 4d 1d 00 00       	callq  40311e <gencookie>
  4013d1:	89 05 2d 61 00 00    	mov    %eax,0x612d(%rip)        # 407504 <cookie>
  4013d7:	89 c7                	mov    %eax,%edi
  4013d9:	e8 40 1d 00 00       	callq  40311e <gencookie>
  4013de:	89 05 1c 61 00 00    	mov    %eax,0x611c(%rip)        # 407500 <authkey>
  4013e4:	8b 05 5e 5d 00 00    	mov    0x5d5e(%rip),%eax        # 407148 <target_id>
  4013ea:	8d 78 01             	lea    0x1(%rax),%edi
  4013ed:	e8 4e fc ff ff       	callq  401040 <srandom@plt>
  4013f2:	e8 59 fd ff ff       	callq  401150 <random@plt>
  4013f7:	89 c7                	mov    %eax,%edi
  4013f9:	e8 79 02 00 00       	callq  401677 <scramble>
  4013fe:	89 c3                	mov    %eax,%ebx
  401400:	45 85 e4             	test   %r12d,%r12d
  401403:	75 54                	jne    401459 <initialize_target+0xc8>
  401405:	b8 00 00 00 00       	mov    $0x0,%eax
  40140a:	01 d8                	add    %ebx,%eax
  40140c:	0f b7 c0             	movzwl %ax,%eax
  40140f:	8d 04 c5 00 01 00 00 	lea    0x100(,%rax,8),%eax
  401416:	89 c0                	mov    %eax,%eax
  401418:	48 89 05 61 60 00 00 	mov    %rax,0x6061(%rip)        # 407480 <buf_offset>
  40141f:	c6 05 02 6d 00 00 63 	movb   $0x63,0x6d02(%rip)        # 408128 <target_prefix>
  401426:	83 3d 5b 60 00 00 00 	cmpl   $0x0,0x605b(%rip)        # 407488 <notify>
  40142d:	74 09                	je     401438 <initialize_target+0xa7>
  40142f:	83 3d d2 60 00 00 00 	cmpl   $0x0,0x60d2(%rip)        # 407508 <is_checker>
  401436:	74 39                	je     401471 <initialize_target+0xe0>
  401438:	48 8b 45 d8          	mov    -0x28(%rbp),%rax
  40143c:	64 48 33 04 25 28 00 	xor    %fs:0x28,%rax
  401443:	00 00 
  401445:	75 5f                	jne    4014a6 <initialize_target+0x115>
  401447:	48 81 c4 18 20 00 00 	add    $0x2018,%rsp
  40144e:	5b                   	pop    %rbx
  40144f:	41 5a                	pop    %r10
  401451:	41 5c                	pop    %r12
  401453:	5d                   	pop    %rbp
  401454:	49 8d 62 f8          	lea    -0x8(%r10),%rsp
  401458:	c3                   	retq   
  401459:	bf 00 00 00 00       	mov    $0x0,%edi
  40145e:	e8 dd fc ff ff       	callq  401140 <time@plt>
  401463:	89 c7                	mov    %eax,%edi
  401465:	e8 d6 fb ff ff       	callq  401040 <srandom@plt>
  40146a:	e8 e1 fc ff ff       	callq  401150 <random@plt>
  40146f:	eb 99                	jmp    40140a <initialize_target+0x79>
  401471:	48 8d bd d0 df ff ff 	lea    -0x2030(%rbp),%rdi
  401478:	e8 c1 19 00 00       	callq  402e3e <init_driver>
  40147d:	85 c0                	test   %eax,%eax
  40147f:	79 b7                	jns    401438 <initialize_target+0xa7>
  401481:	48 8d 95 d0 df ff ff 	lea    -0x2030(%rbp),%rdx
  401488:	be e8 40 40 00       	mov    $0x4040e8,%esi
  40148d:	bf 01 00 00 00       	mov    $0x1,%edi
  401492:	b8 00 00 00 00       	mov    $0x0,%eax
  401497:	e8 e4 fc ff ff       	callq  401180 <__printf_chk@plt>
  40149c:	bf 08 00 00 00       	mov    $0x8,%edi
  4014a1:	e8 1a fd ff ff       	callq  4011c0 <exit@plt>
  4014a6:	e8 e5 fb ff ff       	callq  401090 <__stack_chk_fail@plt>

00000000004014ab <main>:
  4014ab:	41 56                	push   %r14
  4014ad:	41 55                	push   %r13
  4014af:	41 54                	push   %r12
  4014b1:	55                   	push   %rbp
  4014b2:	53                   	push   %rbx
  4014b3:	41 89 fc             	mov    %edi,%r12d
  4014b6:	48 89 f3             	mov    %rsi,%rbx
  4014b9:	be f9 20 40 00       	mov    $0x4020f9,%esi
  4014be:	bf 0b 00 00 00       	mov    $0xb,%edi
  4014c3:	e8 28 fc ff ff       	callq  4010f0 <signal@plt>
  4014c8:	be ab 20 40 00       	mov    $0x4020ab,%esi
  4014cd:	bf 07 00 00 00       	mov    $0x7,%edi
  4014d2:	e8 19 fc ff ff       	callq  4010f0 <signal@plt>
  4014d7:	be 47 21 40 00       	mov    $0x402147,%esi
  4014dc:	bf 04 00 00 00       	mov    $0x4,%edi
  4014e1:	e8 0a fc ff ff       	callq  4010f0 <signal@plt>
  4014e6:	83 3d 1b 60 00 00 00 	cmpl   $0x0,0x601b(%rip)        # 407508 <is_checker>
  4014ed:	75 24                	jne    401513 <main+0x68>
  4014ef:	bd ad 41 40 00       	mov    $0x4041ad,%ebp
  4014f4:	48 8b 05 a5 5f 00 00 	mov    0x5fa5(%rip),%rax        # 4074a0 <stdin@@GLIBC_2.2.5>
  4014fb:	48 89 05 ee 5f 00 00 	mov    %rax,0x5fee(%rip)        # 4074f0 <infile>
  401502:	41 bd 00 00 00 00    	mov    $0x0,%r13d
  401508:	41 be 00 00 00 00    	mov    $0x0,%r14d
  40150e:	e9 85 00 00 00       	jmpq   401598 <main+0xed>
  401513:	be 95 21 40 00       	mov    $0x402195,%esi
  401518:	bf 0e 00 00 00       	mov    $0xe,%edi
  40151d:	e8 ce fb ff ff       	callq  4010f0 <signal@plt>
  401522:	bf 05 00 00 00       	mov    $0x5,%edi
  401527:	e8 94 fb ff ff       	callq  4010c0 <alarm@plt>
  40152c:	bd b2 41 40 00       	mov    $0x4041b2,%ebp
  401531:	eb c1                	jmp    4014f4 <main+0x49>
  401533:	48 8b 3b             	mov    (%rbx),%rdi
  401536:	e8 cc fd ff ff       	callq  401307 <usage>
  40153b:	be 5d 44 40 00       	mov    $0x40445d,%esi
  401540:	48 8b 3d 61 5f 00 00 	mov    0x5f61(%rip),%rdi        # 4074a8 <optarg@@GLIBC_2.2.5>
  401547:	e8 44 fc ff ff       	callq  401190 <fopen@plt>
  40154c:	48 89 05 9d 5f 00 00 	mov    %rax,0x5f9d(%rip)        # 4074f0 <infile>
  401553:	48 85 c0             	test   %rax,%rax
  401556:	75 40                	jne    401598 <main+0xed>
  401558:	48 8b 0d 49 5f 00 00 	mov    0x5f49(%rip),%rcx        # 4074a8 <optarg@@GLIBC_2.2.5>
  40155f:	ba ba 41 40 00       	mov    $0x4041ba,%edx
  401564:	be 01 00 00 00       	mov    $0x1,%esi
  401569:	48 8b 3d 50 5f 00 00 	mov    0x5f50(%rip),%rdi        # 4074c0 <stderr@@GLIBC_2.2.5>
  401570:	e8 6b fc ff ff       	callq  4011e0 <__fprintf_chk@plt>
  401575:	b8 01 00 00 00       	mov    $0x1,%eax
  40157a:	e9 cc 00 00 00       	jmpq   40164b <main+0x1a0>
  40157f:	ba 10 00 00 00       	mov    $0x10,%edx
  401584:	be 00 00 00 00       	mov    $0x0,%esi
  401589:	48 8b 3d 18 5f 00 00 	mov    0x5f18(%rip),%rdi        # 4074a8 <optarg@@GLIBC_2.2.5>
  401590:	e8 1b fc ff ff       	callq  4011b0 <strtoul@plt>
  401595:	41 89 c6             	mov    %eax,%r14d
  401598:	48 89 ea             	mov    %rbp,%rdx
  40159b:	48 89 de             	mov    %rbx,%rsi
  40159e:	44 89 e7             	mov    %r12d,%edi
  4015a1:	e8 fa fb ff ff       	callq  4011a0 <getopt@plt>
  4015a6:	3c ff                	cmp    $0xff,%al
  4015a8:	74 57                	je     401601 <main+0x156>
  4015aa:	0f be d0             	movsbl %al,%edx
  4015ad:	83 e8 61             	sub    $0x61,%eax
  4015b0:	3c 10                	cmp    $0x10,%al
  4015b2:	77 31                	ja     4015e5 <main+0x13a>
  4015b4:	0f b6 c0             	movzbl %al,%eax
  4015b7:	ff 24 c5 f8 41 40 00 	jmpq   *0x4041f8(,%rax,8)
  4015be:	ba 0a 00 00 00       	mov    $0xa,%edx
  4015c3:	be 00 00 00 00       	mov    $0x0,%esi
  4015c8:	48 8b 3d d9 5e 00 00 	mov    0x5ed9(%rip),%rdi        # 4074a8 <optarg@@GLIBC_2.2.5>
  4015cf:	e8 4c fb ff ff       	callq  401120 <strtol@plt>
  4015d4:	41 89 c5             	mov    %eax,%r13d
  4015d7:	eb bf                	jmp    401598 <main+0xed>
  4015d9:	c7 05 a5 5e 00 00 00 	movl   $0x0,0x5ea5(%rip)        # 407488 <notify>
  4015e0:	00 00 00 
  4015e3:	eb b3                	jmp    401598 <main+0xed>
  4015e5:	be d7 41 40 00       	mov    $0x4041d7,%esi
  4015ea:	bf 01 00 00 00       	mov    $0x1,%edi
  4015ef:	b8 00 00 00 00       	mov    $0x0,%eax
  4015f4:	e8 87 fb ff ff       	callq  401180 <__printf_chk@plt>
  4015f9:	48 8b 3b             	mov    (%rbx),%rdi
  4015fc:	e8 06 fd ff ff       	callq  401307 <usage>
  401601:	be 00 00 00 00       	mov    $0x0,%esi
  401606:	44 89 ef             	mov    %r13d,%edi
  401609:	e8 83 fd ff ff       	callq  401391 <initialize_target>
  40160e:	83 3d f3 5e 00 00 00 	cmpl   $0x0,0x5ef3(%rip)        # 407508 <is_checker>
  401615:	74 09                	je     401620 <main+0x175>
  401617:	44 39 35 e2 5e 00 00 	cmp    %r14d,0x5ee2(%rip)        # 407500 <authkey>
  40161e:	75 34                	jne    401654 <main+0x1a9>
  401620:	8b 15 de 5e 00 00    	mov    0x5ede(%rip),%edx        # 407504 <cookie>
  401626:	be ea 41 40 00       	mov    $0x4041ea,%esi
  40162b:	bf 01 00 00 00       	mov    $0x1,%edi
  401630:	b8 00 00 00 00       	mov    $0x0,%eax
  401635:	e8 46 fb ff ff       	callq  401180 <__printf_chk@plt>
  40163a:	48 8b 3d 3f 5e 00 00 	mov    0x5e3f(%rip),%rdi        # 407480 <buf_offset>
  401641:	e8 51 0c 00 00       	callq  402297 <stable_launch>
  401646:	b8 00 00 00 00       	mov    $0x0,%eax
  40164b:	5b                   	pop    %rbx
  40164c:	5d                   	pop    %rbp
  40164d:	41 5c                	pop    %r12
  40164f:	41 5d                	pop    %r13
  401651:	41 5e                	pop    %r14
  401653:	c3                   	retq   
  401654:	44 89 f2             	mov    %r14d,%edx
  401657:	be 10 41 40 00       	mov    $0x404110,%esi
  40165c:	bf 01 00 00 00       	mov    $0x1,%edi
  401661:	b8 00 00 00 00       	mov    $0x0,%eax
  401666:	e8 15 fb ff ff       	callq  401180 <__printf_chk@plt>
  40166b:	b8 00 00 00 00       	mov    $0x0,%eax
  401670:	e8 a4 06 00 00       	callq  401d19 <check_fail>
  401675:	eb a9                	jmp    401620 <main+0x175>

0000000000401677 <scramble>:
  401677:	4c 8d 54 24 08       	lea    0x8(%rsp),%r10
  40167c:	48 83 e4 f0          	and    $0xfffffffffffffff0,%rsp
  401680:	41 ff 72 f8          	pushq  -0x8(%r10)
  401684:	55                   	push   %rbp
  401685:	48 89 e5             	mov    %rsp,%rbp
  401688:	41 52                	push   %r10
  40168a:	48 83 ec 38          	sub    $0x38,%rsp
  40168e:	64 48 8b 04 25 28 00 	mov    %fs:0x28,%rax
  401695:	00 00 
  401697:	48 89 45 e8          	mov    %rax,-0x18(%rbp)
  40169b:	31 c0                	xor    %eax,%eax
  40169d:	eb 11                	jmp    4016b0 <scramble+0x39>
  40169f:	69 d0 08 c2 00 00    	imul   $0xc208,%eax,%edx
  4016a5:	01 fa                	add    %edi,%edx
  4016a7:	89 c1                	mov    %eax,%ecx
  4016a9:	89 54 8d c0          	mov    %edx,-0x40(%rbp,%rcx,4)
  4016ad:	83 c0 01             	add    $0x1,%eax
  4016b0:	83 f8 09             	cmp    $0x9,%eax
  4016b3:	76 ea                	jbe    40169f <scramble+0x28>
  4016b5:	8b 45 d8             	mov    -0x28(%rbp),%eax
  4016b8:	69 c0 96 74 00 00    	imul   $0x7496,%eax,%eax
  4016be:	89 45 d8             	mov    %eax,-0x28(%rbp)
  4016c1:	8b 45 e4             	mov    -0x1c(%rbp),%eax
  4016c4:	69 c0 f2 85 00 00    	imul   $0x85f2,%eax,%eax
  4016ca:	89 45 e4             	mov    %eax,-0x1c(%rbp)
  4016cd:	8b 45 c0             	mov    -0x40(%rbp),%eax
  4016d0:	69 c0 7e 07 00 00    	imul   $0x77e,%eax,%eax
  4016d6:	89 45 c0             	mov    %eax,-0x40(%rbp)
  4016d9:	8b 45 d0             	mov    -0x30(%rbp),%eax
  4016dc:	69 c0 4f 5d 00 00    	imul   $0x5d4f,%eax,%eax
  4016e2:	89 45 d0             	mov    %eax,-0x30(%rbp)
  4016e5:	8b 45 e0             	mov    -0x20(%rbp),%eax
  4016e8:	69 c0 a7 62 00 00    	imul   $0x62a7,%eax,%eax
  4016ee:	89 45 e0             	mov    %eax,-0x20(%rbp)
  4016f1:	8b 45 d0             	mov    -0x30(%rbp),%eax
  4016f4:	69 c0 1a ed 00 00    	imul   $0xed1a,%eax,%eax
  4016fa:	89 45 d0             	mov    %eax,-0x30(%rbp)
  4016fd:	8b 45 e0             	mov    -0x20(%rbp),%eax
  401700:	69 c0 fd 35 00 00    	imul   $0x35fd,%eax,%eax
  401706:	89 45 e0             	mov    %eax,-0x20(%rbp)
  401709:	8b 45 e0             	mov    -0x20(%rbp),%eax
  40170c:	69 c0 0f 70 00 00    	imul   $0x700f,%eax,%eax
  401712:	89 45 e0             	mov    %eax,-0x20(%rbp)
  401715:	8b 45 d0             	mov    -0x30(%rbp),%eax
  401718:	69 c0 61 be 00 00    	imul   $0xbe61,%eax,%eax
  40171e:	89 45 d0             	mov    %eax,-0x30(%rbp)
  401721:	8b 45 e4             	mov    -0x1c(%rbp),%eax
  401724:	69 c0 f3 b2 00 00    	imul   $0xb2f3,%eax,%eax
  40172a:	89 45 e4             	mov    %eax,-0x1c(%rbp)
  40172d:	8b 45 d4             	mov    -0x2c(%rbp),%eax
  401730:	69 c0 d7 1d 00 00    	imul   $0x1dd7,%eax,%eax
  401736:	89 45 d4             	mov    %eax,-0x2c(%rbp)
  401739:	8b 45 cc             	mov    -0x34(%rbp),%eax
  40173c:	69 c0 a6 f1 00 00    	imul   $0xf1a6,%eax,%eax
  401742:	89 45 cc             	mov    %eax,-0x34(%rbp)
  401745:	8b 45 cc             	mov    -0x34(%rbp),%eax
  401748:	69 c0 a4 29 00 00    	imul   $0x29a4,%eax,%eax
  40174e:	89 45 cc             	mov    %eax,-0x34(%rbp)
  401751:	8b 45 e0             	mov    -0x20(%rbp),%eax
  401754:	69 c0 91 e9 00 00    	imul   $0xe991,%eax,%eax
  40175a:	89 45 e0             	mov    %eax,-0x20(%rbp)
  40175d:	8b 45 e4             	mov    -0x1c(%rbp),%eax
  401760:	69 c0 0c 7b 00 00    	imul   $0x7b0c,%eax,%eax
  401766:	89 45 e4             	mov    %eax,-0x1c(%rbp)
  401769:	8b 45 c8             	mov    -0x38(%rbp),%eax
  40176c:	69 c0 12 77 00 00    	imul   $0x7712,%eax,%eax
  401772:	89 45 c8             	mov    %eax,-0x38(%rbp)
  401775:	8b 45 d0             	mov    -0x30(%rbp),%eax
  401778:	69 c0 86 94 00 00    	imul   $0x9486,%eax,%eax
  40177e:	89 45 d0             	mov    %eax,-0x30(%rbp)
  401781:	8b 45 d0             	mov    -0x30(%rbp),%eax
  401784:	69 c0 af f8 00 00    	imul   $0xf8af,%eax,%eax
  40178a:	89 45 d0             	mov    %eax,-0x30(%rbp)
  40178d:	8b 45 c0             	mov    -0x40(%rbp),%eax
  401790:	69 c0 3d 12 00 00    	imul   $0x123d,%eax,%eax
  401796:	89 45 c0             	mov    %eax,-0x40(%rbp)
  401799:	8b 45 c8             	mov    -0x38(%rbp),%eax
  40179c:	69 c0 1a d6 00 00    	imul   $0xd61a,%eax,%eax
  4017a2:	89 45 c8             	mov    %eax,-0x38(%rbp)
  4017a5:	8b 45 d0             	mov    -0x30(%rbp),%eax
  4017a8:	69 c0 d8 09 00 00    	imul   $0x9d8,%eax,%eax
  4017ae:	89 45 d0             	mov    %eax,-0x30(%rbp)
  4017b1:	8b 45 e4             	mov    -0x1c(%rbp),%eax
  4017b4:	69 c0 10 e8 00 00    	imul   $0xe810,%eax,%eax
  4017ba:	89 45 e4             	mov    %eax,-0x1c(%rbp)
  4017bd:	8b 45 d0             	mov    -0x30(%rbp),%eax
  4017c0:	69 c0 52 bb 00 00    	imul   $0xbb52,%eax,%eax
  4017c6:	89 45 d0             	mov    %eax,-0x30(%rbp)
  4017c9:	8b 45 d4             	mov    -0x2c(%rbp),%eax
  4017cc:	69 c0 4b 2f 00 00    	imul   $0x2f4b,%eax,%eax
  4017d2:	89 45 d4             	mov    %eax,-0x2c(%rbp)
  4017d5:	8b 45 e4             	mov    -0x1c(%rbp),%eax
  4017d8:	69 c0 68 58 00 00    	imul   $0x5868,%eax,%eax
  4017de:	89 45 e4             	mov    %eax,-0x1c(%rbp)
  4017e1:	8b 45 e0             	mov    -0x20(%rbp),%eax
  4017e4:	69 c0 04 32 00 00    	imul   $0x3204,%eax,%eax
  4017ea:	89 45 e0             	mov    %eax,-0x20(%rbp)
  4017ed:	8b 45 d8             	mov    -0x28(%rbp),%eax
  4017f0:	69 c0 0a e4 00 00    	imul   $0xe40a,%eax,%eax
  4017f6:	89 45 d8             	mov    %eax,-0x28(%rbp)
  4017f9:	8b 45 d8             	mov    -0x28(%rbp),%eax
  4017fc:	69 c0 1b d1 00 00    	imul   $0xd11b,%eax,%eax
  401802:	89 45 d8             	mov    %eax,-0x28(%rbp)
  401805:	8b 45 d0             	mov    -0x30(%rbp),%eax
  401808:	69 c0 7d fc 00 00    	imul   $0xfc7d,%eax,%eax
  40180e:	89 45 d0             	mov    %eax,-0x30(%rbp)
  401811:	8b 45 dc             	mov    -0x24(%rbp),%eax
  401814:	69 c0 b8 c2 00 00    	imul   $0xc2b8,%eax,%eax
  40181a:	89 45 dc             	mov    %eax,-0x24(%rbp)
  40181d:	8b 45 c8             	mov    -0x38(%rbp),%eax
  401820:	69 c0 84 73 00 00    	imul   $0x7384,%eax,%eax
  401826:	89 45 c8             	mov    %eax,-0x38(%rbp)
  401829:	8b 45 d0             	mov    -0x30(%rbp),%eax
  40182c:	69 c0 2c 67 00 00    	imul   $0x672c,%eax,%eax
  401832:	89 45 d0             	mov    %eax,-0x30(%rbp)
  401835:	8b 45 d4             	mov    -0x2c(%rbp),%eax
  401838:	69 c0 ce 36 00 00    	imul   $0x36ce,%eax,%eax
  40183e:	89 45 d4             	mov    %eax,-0x2c(%rbp)
  401841:	8b 45 d4             	mov    -0x2c(%rbp),%eax
  401844:	69 c0 0e a4 00 00    	imul   $0xa40e,%eax,%eax
  40184a:	89 45 d4             	mov    %eax,-0x2c(%rbp)
  40184d:	8b 45 c0             	mov    -0x40(%rbp),%eax
  401850:	69 c0 da b5 00 00    	imul   $0xb5da,%eax,%eax
  401856:	89 45 c0             	mov    %eax,-0x40(%rbp)
  401859:	8b 45 e0             	mov    -0x20(%rbp),%eax
  40185c:	69 c0 ef bd 00 00    	imul   $0xbdef,%eax,%eax
  401862:	89 45 e0             	mov    %eax,-0x20(%rbp)
  401865:	8b 45 e0             	mov    -0x20(%rbp),%eax
  401868:	69 c0 5c 3d 00 00    	imul   $0x3d5c,%eax,%eax
  40186e:	89 45 e0             	mov    %eax,-0x20(%rbp)
  401871:	8b 45 e0             	mov    -0x20(%rbp),%eax
  401874:	69 c0 88 ff 00 00    	imul   $0xff88,%eax,%eax
  40187a:	89 45 e0             	mov    %eax,-0x20(%rbp)
  40187d:	8b 45 e4             	mov    -0x1c(%rbp),%eax
  401880:	69 c0 20 fe 00 00    	imul   $0xfe20,%eax,%eax
  401886:	89 45 e4             	mov    %eax,-0x1c(%rbp)
  401889:	8b 45 d0             	mov    -0x30(%rbp),%eax
  40188c:	69 c0 62 72 00 00    	imul   $0x7262,%eax,%eax
  401892:	89 45 d0             	mov    %eax,-0x30(%rbp)
  401895:	8b 45 c0             	mov    -0x40(%rbp),%eax
  401898:	69 c0 12 11 00 00    	imul   $0x1112,%eax,%eax
  40189e:	89 45 c0             	mov    %eax,-0x40(%rbp)
  4018a1:	8b 45 d0             	mov    -0x30(%rbp),%eax
  4018a4:	69 c0 c8 cc 00 00    	imul   $0xccc8,%eax,%eax
  4018aa:	89 45 d0             	mov    %eax,-0x30(%rbp)
  4018ad:	8b 45 d4             	mov    -0x2c(%rbp),%eax
  4018b0:	69 c0 11 c8 00 00    	imul   $0xc811,%eax,%eax
  4018b6:	89 45 d4             	mov    %eax,-0x2c(%rbp)
  4018b9:	8b 45 c0             	mov    -0x40(%rbp),%eax
  4018bc:	69 c0 ca 02 00 00    	imul   $0x2ca,%eax,%eax
  4018c2:	89 45 c0             	mov    %eax,-0x40(%rbp)
  4018c5:	8b 45 d8             	mov    -0x28(%rbp),%eax
  4018c8:	69 c0 90 58 00 00    	imul   $0x5890,%eax,%eax
  4018ce:	89 45 d8             	mov    %eax,-0x28(%rbp)
  4018d1:	8b 45 e0             	mov    -0x20(%rbp),%eax
  4018d4:	69 c0 18 3c 00 00    	imul   $0x3c18,%eax,%eax
  4018da:	89 45 e0             	mov    %eax,-0x20(%rbp)
  4018dd:	8b 45 c8             	mov    -0x38(%rbp),%eax
  4018e0:	69 c0 4c ff 00 00    	imul   $0xff4c,%eax,%eax
  4018e6:	89 45 c8             	mov    %eax,-0x38(%rbp)
  4018e9:	8b 45 e4             	mov    -0x1c(%rbp),%eax
  4018ec:	69 c0 1e d4 00 00    	imul   $0xd41e,%eax,%eax
  4018f2:	89 45 e4             	mov    %eax,-0x1c(%rbp)
  4018f5:	8b 45 d0             	mov    -0x30(%rbp),%eax
  4018f8:	69 c0 1f 03 00 00    	imul   $0x31f,%eax,%eax
  4018fe:	89 45 d0             	mov    %eax,-0x30(%rbp)
  401901:	8b 45 dc             	mov    -0x24(%rbp),%eax
  401904:	69 c0 26 7f 00 00    	imul   $0x7f26,%eax,%eax
  40190a:	89 45 dc             	mov    %eax,-0x24(%rbp)
  40190d:	8b 45 d8             	mov    -0x28(%rbp),%eax
  401910:	69 c0 54 f2 00 00    	imul   $0xf254,%eax,%eax
  401916:	89 45 d8             	mov    %eax,-0x28(%rbp)
  401919:	8b 45 c0             	mov    -0x40(%rbp),%eax
  40191c:	69 c0 ac 78 00 00    	imul   $0x78ac,%eax,%eax
  401922:	89 45 c0             	mov    %eax,-0x40(%rbp)
  401925:	8b 45 d8             	mov    -0x28(%rbp),%eax
  401928:	69 c0 16 e3 00 00    	imul   $0xe316,%eax,%eax
  40192e:	89 45 d8             	mov    %eax,-0x28(%rbp)
  401931:	8b 45 d8             	mov    -0x28(%rbp),%eax
  401934:	69 c0 5e 28 00 00    	imul   $0x285e,%eax,%eax
  40193a:	89 45 d8             	mov    %eax,-0x28(%rbp)
  40193d:	8b 45 d8             	mov    -0x28(%rbp),%eax
  401940:	69 c0 07 a7 00 00    	imul   $0xa707,%eax,%eax
  401946:	89 45 d8             	mov    %eax,-0x28(%rbp)
  401949:	8b 45 d8             	mov    -0x28(%rbp),%eax
  40194c:	69 c0 be 37 00 00    	imul   $0x37be,%eax,%eax
  401952:	89 45 d8             	mov    %eax,-0x28(%rbp)
  401955:	8b 45 d4             	mov    -0x2c(%rbp),%eax
  401958:	69 c0 27 3f 00 00    	imul   $0x3f27,%eax,%eax
  40195e:	89 45 d4             	mov    %eax,-0x2c(%rbp)
  401961:	8b 45 e0             	mov    -0x20(%rbp),%eax
  401964:	69 c0 36 ad 00 00    	imul   $0xad36,%eax,%eax
  40196a:	89 45 e0             	mov    %eax,-0x20(%rbp)
  40196d:	8b 45 d4             	mov    -0x2c(%rbp),%eax
  401970:	69 c0 6a a2 00 00    	imul   $0xa26a,%eax,%eax
  401976:	89 45 d4             	mov    %eax,-0x2c(%rbp)
  401979:	8b 45 d8             	mov    -0x28(%rbp),%eax
  40197c:	69 c0 c6 cb 00 00    	imul   $0xcbc6,%eax,%eax
  401982:	89 45 d8             	mov    %eax,-0x28(%rbp)
  401985:	8b 45 c0             	mov    -0x40(%rbp),%eax
  401988:	69 c0 83 75 00 00    	imul   $0x7583,%eax,%eax
  40198e:	89 45 c0             	mov    %eax,-0x40(%rbp)
  401991:	8b 45 d0             	mov    -0x30(%rbp),%eax
  401994:	69 c0 0e c7 00 00    	imul   $0xc70e,%eax,%eax
  40199a:	89 45 d0             	mov    %eax,-0x30(%rbp)
  40199d:	8b 45 c0             	mov    -0x40(%rbp),%eax
  4019a0:	69 c0 22 ab 00 00    	imul   $0xab22,%eax,%eax
  4019a6:	89 45 c0             	mov    %eax,-0x40(%rbp)
  4019a9:	8b 45 d0             	mov    -0x30(%rbp),%eax
  4019ac:	69 c0 eb aa 00 00    	imul   $0xaaeb,%eax,%eax
  4019b2:	89 45 d0             	mov    %eax,-0x30(%rbp)
  4019b5:	8b 45 e4             	mov    -0x1c(%rbp),%eax
  4019b8:	69 c0 58 13 00 00    	imul   $0x1358,%eax,%eax
  4019be:	89 45 e4             	mov    %eax,-0x1c(%rbp)
  4019c1:	8b 45 c0             	mov    -0x40(%rbp),%eax
  4019c4:	69 c0 3b 67 00 00    	imul   $0x673b,%eax,%eax
  4019ca:	89 45 c0             	mov    %eax,-0x40(%rbp)
  4019cd:	8b 45 c4             	mov    -0x3c(%rbp),%eax
  4019d0:	69 c0 27 67 00 00    	imul   $0x6727,%eax,%eax
  4019d6:	89 45 c4             	mov    %eax,-0x3c(%rbp)
  4019d9:	8b 45 e4             	mov    -0x1c(%rbp),%eax
  4019dc:	69 c0 5c 35 00 00    	imul   $0x355c,%eax,%eax
  4019e2:	89 45 e4             	mov    %eax,-0x1c(%rbp)
  4019e5:	8b 45 c4             	mov    -0x3c(%rbp),%eax
  4019e8:	69 c0 1b 58 00 00    	imul   $0x581b,%eax,%eax
  4019ee:	89 45 c4             	mov    %eax,-0x3c(%rbp)
  4019f1:	8b 45 d4             	mov    -0x2c(%rbp),%eax
  4019f4:	69 c0 73 2b 00 00    	imul   $0x2b73,%eax,%eax
  4019fa:	89 45 d4             	mov    %eax,-0x2c(%rbp)
  4019fd:	8b 45 c0             	mov    -0x40(%rbp),%eax
  401a00:	69 c0 7b f8 00 00    	imul   $0xf87b,%eax,%eax
  401a06:	89 45 c0             	mov    %eax,-0x40(%rbp)
  401a09:	8b 45 d8             	mov    -0x28(%rbp),%eax
  401a0c:	69 c0 3d b7 00 00    	imul   $0xb73d,%eax,%eax
  401a12:	89 45 d8             	mov    %eax,-0x28(%rbp)
  401a15:	8b 45 dc             	mov    -0x24(%rbp),%eax
  401a18:	69 c0 b9 67 00 00    	imul   $0x67b9,%eax,%eax
  401a1e:	89 45 dc             	mov    %eax,-0x24(%rbp)
  401a21:	8b 45 e4             	mov    -0x1c(%rbp),%eax
  401a24:	69 c0 da 3e 00 00    	imul   $0x3eda,%eax,%eax
  401a2a:	89 45 e4             	mov    %eax,-0x1c(%rbp)
  401a2d:	8b 45 d4             	mov    -0x2c(%rbp),%eax
  401a30:	69 c0 74 14 00 00    	imul   $0x1474,%eax,%eax
  401a36:	89 45 d4             	mov    %eax,-0x2c(%rbp)
  401a39:	8b 45 e0             	mov    -0x20(%rbp),%eax
  401a3c:	69 c0 1e 05 00 00    	imul   $0x51e,%eax,%eax
  401a42:	89 45 e0             	mov    %eax,-0x20(%rbp)
  401a45:	8b 45 d0             	mov    -0x30(%rbp),%eax
  401a48:	69 c0 7f 12 00 00    	imul   $0x127f,%eax,%eax
  401a4e:	89 45 d0             	mov    %eax,-0x30(%rbp)
  401a51:	8b 45 c0             	mov    -0x40(%rbp),%eax
  401a54:	69 c0 c8 fe 00 00    	imul   $0xfec8,%eax,%eax
  401a5a:	89 45 c0             	mov    %eax,-0x40(%rbp)
  401a5d:	8b 45 dc             	mov    -0x24(%rbp),%eax
  401a60:	69 c0 59 67 00 00    	imul   $0x6759,%eax,%eax
  401a66:	89 45 dc             	mov    %eax,-0x24(%rbp)
  401a69:	ba 00 00 00 00       	mov    $0x0,%edx
  401a6e:	b8 00 00 00 00       	mov    $0x0,%eax
  401a73:	eb 0b                	jmp    401a80 <scramble+0x409>
  401a75:	89 d1                	mov    %edx,%ecx
  401a77:	8b 4c 8d c0          	mov    -0x40(%rbp,%rcx,4),%ecx
  401a7b:	01 c8                	add    %ecx,%eax
  401a7d:	83 c2 01             	add    $0x1,%edx
  401a80:	83 fa 09             	cmp    $0x9,%edx
  401a83:	76 f0                	jbe    401a75 <scramble+0x3fe>
  401a85:	48 8b 75 e8          	mov    -0x18(%rbp),%rsi
  401a89:	64 48 33 34 25 28 00 	xor    %fs:0x28,%rsi
  401a90:	00 00 
  401a92:	75 0c                	jne    401aa0 <scramble+0x429>
  401a94:	48 83 c4 38          	add    $0x38,%rsp
  401a98:	41 5a                	pop    %r10
  401a9a:	5d                   	pop    %rbp
  401a9b:	49 8d 62 f8          	lea    -0x8(%r10),%rsp
  401a9f:	c3                   	retq   
  401aa0:	e8 eb f5 ff ff       	callq  401090 <__stack_chk_fail@plt>

0000000000401aa5 <getbuf>:
  401aa5:	48 83 ec 18          	sub    $0x18,%rsp
  401aa9:	48 89 e7             	mov    %rsp,%rdi
  401aac:	e8 9d 02 00 00       	callq  401d4e <Gets>
  401ab1:	b8 01 00 00 00       	mov    $0x1,%eax
  401ab6:	48 83 c4 18          	add    $0x18,%rsp
  401aba:	c3                   	retq   

0000000000401abb <touch1>:
  401abb:	48 83 ec 08          	sub    $0x8,%rsp
  401abf:	c7 05 33 5a 00 00 01 	movl   $0x1,0x5a33(%rip)        # 4074fc <vlevel>
  401ac6:	00 00 00 
  401ac9:	bf b3 42 40 00       	mov    $0x4042b3,%edi
  401ace:	e8 9d f5 ff ff       	callq  401070 <puts@plt>
  401ad3:	bf 01 00 00 00       	mov    $0x1,%edi
  401ad8:	e8 e1 04 00 00       	callq  401fbe <validate>
  401add:	bf 00 00 00 00       	mov    $0x0,%edi
  401ae2:	e8 d9 f6 ff ff       	callq  4011c0 <exit@plt>

0000000000401ae7 <touch2>:
  401ae7:	48 83 ec 08          	sub    $0x8,%rsp
  401aeb:	89 fa                	mov    %edi,%edx
  401aed:	c7 05 05 5a 00 00 02 	movl   $0x2,0x5a05(%rip)        # 4074fc <vlevel>
  401af4:	00 00 00 
  401af7:	39 3d 07 5a 00 00    	cmp    %edi,0x5a07(%rip)        # 407504 <cookie>
  401afd:	74 28                	je     401b27 <touch2+0x40>
  401aff:	be 00 43 40 00       	mov    $0x404300,%esi
  401b04:	bf 01 00 00 00       	mov    $0x1,%edi
  401b09:	b8 00 00 00 00       	mov    $0x0,%eax
  401b0e:	e8 6d f6 ff ff       	callq  401180 <__printf_chk@plt>
  401b13:	bf 02 00 00 00       	mov    $0x2,%edi
  401b18:	e8 66 05 00 00       	callq  402083 <fail>
  401b1d:	bf 00 00 00 00       	mov    $0x0,%edi
  401b22:	e8 99 f6 ff ff       	callq  4011c0 <exit@plt>
  401b27:	be d8 42 40 00       	mov    $0x4042d8,%esi
  401b2c:	bf 01 00 00 00       	mov    $0x1,%edi
  401b31:	b8 00 00 00 00       	mov    $0x0,%eax
  401b36:	e8 45 f6 ff ff       	callq  401180 <__printf_chk@plt>
  401b3b:	bf 02 00 00 00       	mov    $0x2,%edi
  401b40:	e8 79 04 00 00       	callq  401fbe <validate>
  401b45:	eb d6                	jmp    401b1d <touch2+0x36>

0000000000401b47 <hexmatch>:
  401b47:	4c 8d 54 24 08       	lea    0x8(%rsp),%r10
  401b4c:	48 83 e4 f0          	and    $0xfffffffffffffff0,%rsp
  401b50:	41 ff 72 f8          	pushq  -0x8(%r10)
  401b54:	55                   	push   %rbp
  401b55:	48 89 e5             	mov    %rsp,%rbp
  401b58:	41 55                	push   %r13
  401b5a:	41 54                	push   %r12
  401b5c:	41 52                	push   %r10
  401b5e:	53                   	push   %rbx
  401b5f:	48 83 c4 80          	add    $0xffffffffffffff80,%rsp
  401b63:	41 89 fc             	mov    %edi,%r12d
  401b66:	48 89 f3             	mov    %rsi,%rbx
  401b69:	64 48 8b 04 25 28 00 	mov    %fs:0x28,%rax
  401b70:	00 00 
  401b72:	48 89 45 d8          	mov    %rax,-0x28(%rbp)
  401b76:	31 c0                	xor    %eax,%eax
  401b78:	e8 d3 f5 ff ff       	callq  401150 <random@plt>
  401b7d:	48 89 c1             	mov    %rax,%rcx
  401b80:	48 ba 0b d7 a3 70 3d 	movabs $0xa3d70a3d70a3d70b,%rdx
  401b87:	0a d7 a3 
  401b8a:	48 f7 ea             	imul   %rdx
  401b8d:	48 01 ca             	add    %rcx,%rdx
  401b90:	48 c1 fa 06          	sar    $0x6,%rdx
  401b94:	48 89 c8             	mov    %rcx,%rax
  401b97:	48 c1 f8 3f          	sar    $0x3f,%rax
  401b9b:	48 29 c2             	sub    %rax,%rdx
  401b9e:	48 8d 04 92          	lea    (%rdx,%rdx,4),%rax
  401ba2:	48 8d 14 80          	lea    (%rax,%rax,4),%rdx
  401ba6:	48 8d 04 95 00 00 00 	lea    0x0(,%rdx,4),%rax
  401bad:	00 
  401bae:	48 29 c1             	sub    %rax,%rcx
  401bb1:	4c 8d ac 0d 60 ff ff 	lea    -0xa0(%rbp,%rcx,1),%r13
  401bb8:	ff 
  401bb9:	45 89 e0             	mov    %r12d,%r8d
  401bbc:	b9 d0 42 40 00       	mov    $0x4042d0,%ecx
  401bc1:	48 c7 c2 ff ff ff ff 	mov    $0xffffffffffffffff,%rdx
  401bc8:	be 01 00 00 00       	mov    $0x1,%esi
  401bcd:	4c 89 ef             	mov    %r13,%rdi
  401bd0:	b8 00 00 00 00       	mov    $0x0,%eax
  401bd5:	e8 26 f6 ff ff       	callq  401200 <__sprintf_chk@plt>
  401bda:	ba 09 00 00 00       	mov    $0x9,%edx
  401bdf:	4c 89 ee             	mov    %r13,%rsi
  401be2:	48 89 df             	mov    %rbx,%rdi
  401be5:	e8 66 f4 ff ff       	callq  401050 <strncmp@plt>
  401bea:	85 c0                	test   %eax,%eax
  401bec:	0f 94 c0             	sete   %al
  401bef:	48 8b 5d d8          	mov    -0x28(%rbp),%rbx
  401bf3:	64 48 33 1c 25 28 00 	xor    %fs:0x28,%rbx
  401bfa:	00 00 
  401bfc:	75 14                	jne    401c12 <hexmatch+0xcb>
  401bfe:	0f b6 c0             	movzbl %al,%eax
  401c01:	48 83 ec 80          	sub    $0xffffffffffffff80,%rsp
  401c05:	5b                   	pop    %rbx
  401c06:	41 5a                	pop    %r10
  401c08:	41 5c                	pop    %r12
  401c0a:	41 5d                	pop    %r13
  401c0c:	5d                   	pop    %rbp
  401c0d:	49 8d 62 f8          	lea    -0x8(%r10),%rsp
  401c11:	c3                   	retq   
  401c12:	e8 79 f4 ff ff       	callq  401090 <__stack_chk_fail@plt>

0000000000401c17 <touch3>:
  401c17:	53                   	push   %rbx
  401c18:	48 89 fb             	mov    %rdi,%rbx
  401c1b:	c7 05 d7 58 00 00 03 	movl   $0x3,0x58d7(%rip)        # 4074fc <vlevel>
  401c22:	00 00 00 
  401c25:	48 89 fe             	mov    %rdi,%rsi
  401c28:	8b 3d d6 58 00 00    	mov    0x58d6(%rip),%edi        # 407504 <cookie>
  401c2e:	e8 14 ff ff ff       	callq  401b47 <hexmatch>
  401c33:	85 c0                	test   %eax,%eax
  401c35:	74 2b                	je     401c62 <touch3+0x4b>
  401c37:	48 89 da             	mov    %rbx,%rdx
  401c3a:	be 28 43 40 00       	mov    $0x404328,%esi
  401c3f:	bf 01 00 00 00       	mov    $0x1,%edi
  401c44:	b8 00 00 00 00       	mov    $0x0,%eax
  401c49:	e8 32 f5 ff ff       	callq  401180 <__printf_chk@plt>
  401c4e:	bf 03 00 00 00       	mov    $0x3,%edi
  401c53:	e8 66 03 00 00       	callq  401fbe <validate>
  401c58:	bf 00 00 00 00       	mov    $0x0,%edi
  401c5d:	e8 5e f5 ff ff       	callq  4011c0 <exit@plt>
  401c62:	48 89 da             	mov    %rbx,%rdx
  401c65:	be 50 43 40 00       	mov    $0x404350,%esi
  401c6a:	bf 01 00 00 00       	mov    $0x1,%edi
  401c6f:	b8 00 00 00 00       	mov    $0x0,%eax
  401c74:	e8 07 f5 ff ff       	callq  401180 <__printf_chk@plt>
  401c79:	bf 03 00 00 00       	mov    $0x3,%edi
  401c7e:	e8 00 04 00 00       	callq  402083 <fail>
  401c83:	eb d3                	jmp    401c58 <touch3+0x41>

0000000000401c85 <test>:
  401c85:	48 83 ec 08          	sub    $0x8,%rsp
  401c89:	b8 00 00 00 00       	mov    $0x0,%eax
  401c8e:	e8 12 fe ff ff       	callq  401aa5 <getbuf>
  401c93:	89 c2                	mov    %eax,%edx
  401c95:	be 78 43 40 00       	mov    $0x404378,%esi
  401c9a:	bf 01 00 00 00       	mov    $0x1,%edi
  401c9f:	b8 00 00 00 00       	mov    $0x0,%eax
  401ca4:	e8 d7 f4 ff ff       	callq  401180 <__printf_chk@plt>
  401ca9:	48 83 c4 08          	add    $0x8,%rsp
  401cad:	c3                   	retq   

0000000000401cae <save_char>:
  401cae:	8b 05 70 64 00 00    	mov    0x6470(%rip),%eax        # 408124 <gets_cnt>
  401cb4:	3d ff 03 00 00       	cmp    $0x3ff,%eax
  401cb9:	7f 49                	jg     401d04 <save_char+0x56>
  401cbb:	89 f9                	mov    %edi,%ecx
  401cbd:	c0 e9 04             	shr    $0x4,%cl
  401cc0:	8d 14 40             	lea    (%rax,%rax,2),%edx
  401cc3:	83 e1 0f             	and    $0xf,%ecx
  401cc6:	0f b6 b1 a0 46 40 00 	movzbl 0x4046a0(%rcx),%esi
  401ccd:	48 63 ca             	movslq %edx,%rcx
  401cd0:	40 88 b1 20 75 40 00 	mov    %sil,0x407520(%rcx)
  401cd7:	8d 4a 01             	lea    0x1(%rdx),%ecx
  401cda:	83 e7 0f             	and    $0xf,%edi
  401cdd:	0f b6 b7 a0 46 40 00 	movzbl 0x4046a0(%rdi),%esi
  401ce4:	48 63 c9             	movslq %ecx,%rcx
  401ce7:	40 88 b1 20 75 40 00 	mov    %sil,0x407520(%rcx)
  401cee:	83 c2 02             	add    $0x2,%edx
  401cf1:	48 63 d2             	movslq %edx,%rdx
  401cf4:	c6 82 20 75 40 00 20 	movb   $0x20,0x407520(%rdx)
  401cfb:	83 c0 01             	add    $0x1,%eax
  401cfe:	89 05 20 64 00 00    	mov    %eax,0x6420(%rip)        # 408124 <gets_cnt>
  401d04:	f3 c3                	repz retq 

0000000000401d06 <save_term>:
  401d06:	8b 05 18 64 00 00    	mov    0x6418(%rip),%eax        # 408124 <gets_cnt>
  401d0c:	8d 04 40             	lea    (%rax,%rax,2),%eax
  401d0f:	48 98                	cltq   
  401d11:	c6 80 20 75 40 00 00 	movb   $0x0,0x407520(%rax)
  401d18:	c3                   	retq   

0000000000401d19 <check_fail>:
  401d19:	48 83 ec 08          	sub    $0x8,%rsp
  401d1d:	0f be 15 04 64 00 00 	movsbl 0x6404(%rip),%edx        # 408128 <target_prefix>
  401d24:	41 b8 20 75 40 00    	mov    $0x407520,%r8d
  401d2a:	8b 0d c8 57 00 00    	mov    0x57c8(%rip),%ecx        # 4074f8 <check_level>
  401d30:	be 9b 43 40 00       	mov    $0x40439b,%esi
  401d35:	bf 01 00 00 00       	mov    $0x1,%edi
  401d3a:	b8 00 00 00 00       	mov    $0x0,%eax
  401d3f:	e8 3c f4 ff ff       	callq  401180 <__printf_chk@plt>
  401d44:	bf 01 00 00 00       	mov    $0x1,%edi
  401d49:	e8 72 f4 ff ff       	callq  4011c0 <exit@plt>

0000000000401d4e <Gets>:
  401d4e:	41 54                	push   %r12
  401d50:	55                   	push   %rbp
  401d51:	53                   	push   %rbx
  401d52:	49 89 fc             	mov    %rdi,%r12
  401d55:	c7 05 c5 63 00 00 00 	movl   $0x0,0x63c5(%rip)        # 408124 <gets_cnt>
  401d5c:	00 00 00 
  401d5f:	48 89 fb             	mov    %rdi,%rbx
  401d62:	eb 11                	jmp    401d75 <Gets+0x27>
  401d64:	48 8d 6b 01          	lea    0x1(%rbx),%rbp
  401d68:	88 03                	mov    %al,(%rbx)
  401d6a:	0f b6 f8             	movzbl %al,%edi
  401d6d:	e8 3c ff ff ff       	callq  401cae <save_char>
  401d72:	48 89 eb             	mov    %rbp,%rbx
  401d75:	48 8b 3d 74 57 00 00 	mov    0x5774(%rip),%rdi        # 4074f0 <infile>
  401d7c:	e8 6f f4 ff ff       	callq  4011f0 <getc@plt>
  401d81:	83 f8 ff             	cmp    $0xffffffff,%eax
  401d84:	74 05                	je     401d8b <Gets+0x3d>
  401d86:	83 f8 0a             	cmp    $0xa,%eax
  401d89:	75 d9                	jne    401d64 <Gets+0x16>
  401d8b:	c6 03 00             	movb   $0x0,(%rbx)
  401d8e:	b8 00 00 00 00       	mov    $0x0,%eax
  401d93:	e8 6e ff ff ff       	callq  401d06 <save_term>
  401d98:	4c 89 e0             	mov    %r12,%rax
  401d9b:	5b                   	pop    %rbx
  401d9c:	5d                   	pop    %rbp
  401d9d:	41 5c                	pop    %r12
  401d9f:	c3                   	retq   

0000000000401da0 <notify_server>:
  401da0:	4c 8d 54 24 08       	lea    0x8(%rsp),%r10
  401da5:	48 83 e4 f0          	and    $0xfffffffffffffff0,%rsp
  401da9:	41 ff 72 f8          	pushq  -0x8(%r10)
  401dad:	55                   	push   %rbp
  401dae:	48 89 e5             	mov    %rsp,%rbp
  401db1:	41 54                	push   %r12
  401db3:	41 52                	push   %r10
  401db5:	53                   	push   %rbx
  401db6:	48 81 ec 18 40 00 00 	sub    $0x4018,%rsp
  401dbd:	64 48 8b 04 25 28 00 	mov    %fs:0x28,%rax
  401dc4:	00 00 
  401dc6:	48 89 45 d8          	mov    %rax,-0x28(%rbp)
  401dca:	31 c0                	xor    %eax,%eax
  401dcc:	83 3d 35 57 00 00 00 	cmpl   $0x0,0x5735(%rip)        # 407508 <is_checker>
  401dd3:	0f 85 cf 00 00 00    	jne    401ea8 <notify_server+0x108>
  401dd9:	89 fb                	mov    %edi,%ebx
  401ddb:	8b 05 43 63 00 00    	mov    0x6343(%rip),%eax        # 408124 <gets_cnt>
  401de1:	83 c0 64             	add    $0x64,%eax
  401de4:	3d 00 20 00 00       	cmp    $0x2000,%eax
  401de9:	0f 8f db 00 00 00    	jg     401eca <notify_server+0x12a>
  401def:	0f be 05 32 63 00 00 	movsbl 0x6332(%rip),%eax        # 408128 <target_prefix>
  401df6:	83 3d 8b 56 00 00 00 	cmpl   $0x0,0x568b(%rip)        # 407488 <notify>
  401dfd:	0f 84 e5 00 00 00    	je     401ee8 <notify_server+0x148>
  401e03:	8b 15 f7 56 00 00    	mov    0x56f7(%rip),%edx        # 407500 <authkey>
  401e09:	85 db                	test   %ebx,%ebx
  401e0b:	0f 84 e1 00 00 00    	je     401ef2 <notify_server+0x152>
  401e11:	41 bc b1 43 40 00    	mov    $0x4043b1,%r12d
  401e17:	68 20 75 40 00       	pushq  $0x407520
  401e1c:	56                   	push   %rsi
  401e1d:	50                   	push   %rax
  401e1e:	52                   	push   %rdx
  401e1f:	4d 89 e1             	mov    %r12,%r9
  401e22:	44 8b 05 1f 53 00 00 	mov    0x531f(%rip),%r8d        # 407148 <target_id>
  401e29:	b9 bb 43 40 00       	mov    $0x4043bb,%ecx
  401e2e:	ba 00 20 00 00       	mov    $0x2000,%edx
  401e33:	be 01 00 00 00       	mov    $0x1,%esi
  401e38:	48 8d bd d0 bf ff ff 	lea    -0x4030(%rbp),%rdi
  401e3f:	b8 00 00 00 00       	mov    $0x0,%eax
  401e44:	e8 b7 f3 ff ff       	callq  401200 <__sprintf_chk@plt>
  401e49:	48 83 c4 20          	add    $0x20,%rsp
  401e4d:	83 3d 34 56 00 00 00 	cmpl   $0x0,0x5634(%rip)        # 407488 <notify>
  401e54:	0f 84 d7 00 00 00    	je     401f31 <notify_server+0x191>
  401e5a:	85 db                	test   %ebx,%ebx
  401e5c:	0f 84 c0 00 00 00    	je     401f22 <notify_server+0x182>
  401e62:	4c 8d 8d d0 df ff ff 	lea    -0x2030(%rbp),%r9
  401e69:	41 b8 00 00 00 00    	mov    $0x0,%r8d
  401e6f:	48 8d 8d d0 bf ff ff 	lea    -0x4030(%rbp),%rcx
  401e76:	48 8b 15 d3 52 00 00 	mov    0x52d3(%rip),%rdx        # 407150 <lab>
  401e7d:	48 8b 35 d4 52 00 00 	mov    0x52d4(%rip),%rsi        # 407158 <course>
  401e84:	48 8b 3d b5 52 00 00 	mov    0x52b5(%rip),%rdi        # 407140 <user_id>
  401e8b:	e8 ed 11 00 00       	callq  40307d <driver_post>
  401e90:	85 c0                	test   %eax,%eax
  401e92:	78 69                	js     401efd <notify_server+0x15d>
  401e94:	bf 00 45 40 00       	mov    $0x404500,%edi
  401e99:	e8 d2 f1 ff ff       	callq  401070 <puts@plt>
  401e9e:	bf e3 43 40 00       	mov    $0x4043e3,%edi
  401ea3:	e8 c8 f1 ff ff       	callq  401070 <puts@plt>
  401ea8:	48 8b 45 d8          	mov    -0x28(%rbp),%rax
  401eac:	64 48 33 04 25 28 00 	xor    %fs:0x28,%rax
  401eb3:	00 00 
  401eb5:	0f 85 fe 00 00 00    	jne    401fb9 <notify_server+0x219>
  401ebb:	48 8d 65 e8          	lea    -0x18(%rbp),%rsp
  401ebf:	5b                   	pop    %rbx
  401ec0:	41 5a                	pop    %r10
  401ec2:	41 5c                	pop    %r12
  401ec4:	5d                   	pop    %rbp
  401ec5:	49 8d 62 f8          	lea    -0x8(%r10),%rsp
  401ec9:	c3                   	retq   
  401eca:	be d0 44 40 00       	mov    $0x4044d0,%esi
  401ecf:	bf 01 00 00 00       	mov    $0x1,%edi
  401ed4:	b8 00 00 00 00       	mov    $0x0,%eax
  401ed9:	e8 a2 f2 ff ff       	callq  401180 <__printf_chk@plt>
  401ede:	bf 01 00 00 00       	mov    $0x1,%edi
  401ee3:	e8 d8 f2 ff ff       	callq  4011c0 <exit@plt>
  401ee8:	ba ff ff ff ff       	mov    $0xffffffff,%edx
  401eed:	e9 17 ff ff ff       	jmpq   401e09 <notify_server+0x69>
  401ef2:	41 bc b6 43 40 00    	mov    $0x4043b6,%r12d
  401ef8:	e9 1a ff ff ff       	jmpq   401e17 <notify_server+0x77>
  401efd:	48 8d 95 d0 df ff ff 	lea    -0x2030(%rbp),%rdx
  401f04:	be d7 43 40 00       	mov    $0x4043d7,%esi
  401f09:	bf 01 00 00 00       	mov    $0x1,%edi
  401f0e:	b8 00 00 00 00       	mov    $0x0,%eax
  401f13:	e8 68 f2 ff ff       	callq  401180 <__printf_chk@plt>
  401f18:	bf 01 00 00 00       	mov    $0x1,%edi
  401f1d:	e8 9e f2 ff ff       	callq  4011c0 <exit@plt>
  401f22:	bf ed 43 40 00       	mov    $0x4043ed,%edi
  401f27:	e8 44 f1 ff ff       	callq  401070 <puts@plt>
  401f2c:	e9 77 ff ff ff       	jmpq   401ea8 <notify_server+0x108>
  401f31:	4c 89 e2             	mov    %r12,%rdx
  401f34:	be 38 45 40 00       	mov    $0x404538,%esi
  401f39:	bf 01 00 00 00       	mov    $0x1,%edi
  401f3e:	b8 00 00 00 00       	mov    $0x0,%eax
  401f43:	e8 38 f2 ff ff       	callq  401180 <__printf_chk@plt>
  401f48:	48 8b 15 f1 51 00 00 	mov    0x51f1(%rip),%rdx        # 407140 <user_id>
  401f4f:	be f4 43 40 00       	mov    $0x4043f4,%esi
  401f54:	bf 01 00 00 00       	mov    $0x1,%edi
  401f59:	b8 00 00 00 00       	mov    $0x0,%eax
  401f5e:	e8 1d f2 ff ff       	callq  401180 <__printf_chk@plt>
  401f63:	48 8b 15 ee 51 00 00 	mov    0x51ee(%rip),%rdx        # 407158 <course>
  401f6a:	be 01 44 40 00       	mov    $0x404401,%esi
  401f6f:	bf 01 00 00 00       	mov    $0x1,%edi
  401f74:	b8 00 00 00 00       	mov    $0x0,%eax
  401f79:	e8 02 f2 ff ff       	callq  401180 <__printf_chk@plt>
  401f7e:	48 8b 15 cb 51 00 00 	mov    0x51cb(%rip),%rdx        # 407150 <lab>
  401f85:	be 0d 44 40 00       	mov    $0x40440d,%esi
  401f8a:	bf 01 00 00 00       	mov    $0x1,%edi
  401f8f:	b8 00 00 00 00       	mov    $0x0,%eax
  401f94:	e8 e7 f1 ff ff       	callq  401180 <__printf_chk@plt>
  401f99:	48 8d 95 d0 bf ff ff 	lea    -0x4030(%rbp),%rdx
  401fa0:	be 16 44 40 00       	mov    $0x404416,%esi
  401fa5:	bf 01 00 00 00       	mov    $0x1,%edi
  401faa:	b8 00 00 00 00       	mov    $0x0,%eax
  401faf:	e8 cc f1 ff ff       	callq  401180 <__printf_chk@plt>
  401fb4:	e9 ef fe ff ff       	jmpq   401ea8 <notify_server+0x108>
  401fb9:	e8 d2 f0 ff ff       	callq  401090 <__stack_chk_fail@plt>

0000000000401fbe <validate>:
  401fbe:	53                   	push   %rbx
  401fbf:	89 fb                	mov    %edi,%ebx
  401fc1:	83 3d 40 55 00 00 00 	cmpl   $0x0,0x5540(%rip)        # 407508 <is_checker>
  401fc8:	74 6b                	je     402035 <validate+0x77>
  401fca:	39 3d 2c 55 00 00    	cmp    %edi,0x552c(%rip)        # 4074fc <vlevel>
  401fd0:	75 2f                	jne    402001 <validate+0x43>
  401fd2:	8b 15 20 55 00 00    	mov    0x5520(%rip),%edx        # 4074f8 <check_level>
  401fd8:	39 fa                	cmp    %edi,%edx
  401fda:	75 39                	jne    402015 <validate+0x57>
  401fdc:	0f be 15 45 61 00 00 	movsbl 0x6145(%rip),%edx        # 408128 <target_prefix>
  401fe3:	41 b8 20 75 40 00    	mov    $0x407520,%r8d
  401fe9:	89 f9                	mov    %edi,%ecx
  401feb:	be 40 44 40 00       	mov    $0x404440,%esi
  401ff0:	bf 01 00 00 00       	mov    $0x1,%edi
  401ff5:	b8 00 00 00 00       	mov    $0x0,%eax
  401ffa:	e8 81 f1 ff ff       	callq  401180 <__printf_chk@plt>
  401fff:	5b                   	pop    %rbx
  402000:	c3                   	retq   
  402001:	bf 22 44 40 00       	mov    $0x404422,%edi
  402006:	e8 65 f0 ff ff       	callq  401070 <puts@plt>
  40200b:	b8 00 00 00 00       	mov    $0x0,%eax
  402010:	e8 04 fd ff ff       	callq  401d19 <check_fail>
  402015:	89 f9                	mov    %edi,%ecx
  402017:	be 60 45 40 00       	mov    $0x404560,%esi
  40201c:	bf 01 00 00 00       	mov    $0x1,%edi
  402021:	b8 00 00 00 00       	mov    $0x0,%eax
  402026:	e8 55 f1 ff ff       	callq  401180 <__printf_chk@plt>
  40202b:	b8 00 00 00 00       	mov    $0x0,%eax
  402030:	e8 e4 fc ff ff       	callq  401d19 <check_fail>
  402035:	39 3d c1 54 00 00    	cmp    %edi,0x54c1(%rip)        # 4074fc <vlevel>
  40203b:	74 18                	je     402055 <validate+0x97>
  40203d:	bf 22 44 40 00       	mov    $0x404422,%edi
  402042:	e8 29 f0 ff ff       	callq  401070 <puts@plt>
  402047:	89 de                	mov    %ebx,%esi
  402049:	bf 00 00 00 00       	mov    $0x0,%edi
  40204e:	e8 4d fd ff ff       	callq  401da0 <notify_server>
  402053:	eb aa                	jmp    401fff <validate+0x41>
  402055:	0f be 0d cc 60 00 00 	movsbl 0x60cc(%rip),%ecx        # 408128 <target_prefix>
  40205c:	89 fa                	mov    %edi,%edx
  40205e:	be 88 45 40 00       	mov    $0x404588,%esi
  402063:	bf 01 00 00 00       	mov    $0x1,%edi
  402068:	b8 00 00 00 00       	mov    $0x0,%eax
  40206d:	e8 0e f1 ff ff       	callq  401180 <__printf_chk@plt>
  402072:	89 de                	mov    %ebx,%esi
  402074:	bf 01 00 00 00       	mov    $0x1,%edi
  402079:	e8 22 fd ff ff       	callq  401da0 <notify_server>
  40207e:	e9 7c ff ff ff       	jmpq   401fff <validate+0x41>

0000000000402083 <fail>:
  402083:	48 83 ec 08          	sub    $0x8,%rsp
  402087:	83 3d 7a 54 00 00 00 	cmpl   $0x0,0x547a(%rip)        # 407508 <is_checker>
  40208e:	75 11                	jne    4020a1 <fail+0x1e>
  402090:	89 fe                	mov    %edi,%esi
  402092:	bf 00 00 00 00       	mov    $0x0,%edi
  402097:	e8 04 fd ff ff       	callq  401da0 <notify_server>
  40209c:	48 83 c4 08          	add    $0x8,%rsp
  4020a0:	c3                   	retq   
  4020a1:	b8 00 00 00 00       	mov    $0x0,%eax
  4020a6:	e8 6e fc ff ff       	callq  401d19 <check_fail>

00000000004020ab <bushandler>:
  4020ab:	48 83 ec 08          	sub    $0x8,%rsp
  4020af:	83 3d 52 54 00 00 00 	cmpl   $0x0,0x5452(%rip)        # 407508 <is_checker>
  4020b6:	74 14                	je     4020cc <bushandler+0x21>
  4020b8:	bf 55 44 40 00       	mov    $0x404455,%edi
  4020bd:	e8 ae ef ff ff       	callq  401070 <puts@plt>
  4020c2:	b8 00 00 00 00       	mov    $0x0,%eax
  4020c7:	e8 4d fc ff ff       	callq  401d19 <check_fail>
  4020cc:	bf c0 45 40 00       	mov    $0x4045c0,%edi
  4020d1:	e8 9a ef ff ff       	callq  401070 <puts@plt>
  4020d6:	bf 5f 44 40 00       	mov    $0x40445f,%edi
  4020db:	e8 90 ef ff ff       	callq  401070 <puts@plt>
  4020e0:	be 00 00 00 00       	mov    $0x0,%esi
  4020e5:	bf 00 00 00 00       	mov    $0x0,%edi
  4020ea:	e8 b1 fc ff ff       	callq  401da0 <notify_server>
  4020ef:	bf 01 00 00 00       	mov    $0x1,%edi
  4020f4:	e8 c7 f0 ff ff       	callq  4011c0 <exit@plt>

00000000004020f9 <seghandler>:
  4020f9:	48 83 ec 08          	sub    $0x8,%rsp
  4020fd:	83 3d 04 54 00 00 00 	cmpl   $0x0,0x5404(%rip)        # 407508 <is_checker>
  402104:	74 14                	je     40211a <seghandler+0x21>
  402106:	bf 75 44 40 00       	mov    $0x404475,%edi
  40210b:	e8 60 ef ff ff       	callq  401070 <puts@plt>
  402110:	b8 00 00 00 00       	mov    $0x0,%eax
  402115:	e8 ff fb ff ff       	callq  401d19 <check_fail>
  40211a:	bf e0 45 40 00       	mov    $0x4045e0,%edi
  40211f:	e8 4c ef ff ff       	callq  401070 <puts@plt>
  402124:	bf 5f 44 40 00       	mov    $0x40445f,%edi
  402129:	e8 42 ef ff ff       	callq  401070 <puts@plt>
  40212e:	be 00 00 00 00       	mov    $0x0,%esi
  402133:	bf 00 00 00 00       	mov    $0x0,%edi
  402138:	e8 63 fc ff ff       	callq  401da0 <notify_server>
  40213d:	bf 01 00 00 00       	mov    $0x1,%edi
  402142:	e8 79 f0 ff ff       	callq  4011c0 <exit@plt>

0000000000402147 <illegalhandler>:
  402147:	48 83 ec 08          	sub    $0x8,%rsp
  40214b:	83 3d b6 53 00 00 00 	cmpl   $0x0,0x53b6(%rip)        # 407508 <is_checker>
  402152:	74 14                	je     402168 <illegalhandler+0x21>
  402154:	bf 88 44 40 00       	mov    $0x404488,%edi
  402159:	e8 12 ef ff ff       	callq  401070 <puts@plt>
  40215e:	b8 00 00 00 00       	mov    $0x0,%eax
  402163:	e8 b1 fb ff ff       	callq  401d19 <check_fail>
  402168:	bf 08 46 40 00       	mov    $0x404608,%edi
  40216d:	e8 fe ee ff ff       	callq  401070 <puts@plt>
  402172:	bf 5f 44 40 00       	mov    $0x40445f,%edi
  402177:	e8 f4 ee ff ff       	callq  401070 <puts@plt>
  40217c:	be 00 00 00 00       	mov    $0x0,%esi
  402181:	bf 00 00 00 00       	mov    $0x0,%edi
  402186:	e8 15 fc ff ff       	callq  401da0 <notify_server>
  40218b:	bf 01 00 00 00       	mov    $0x1,%edi
  402190:	e8 2b f0 ff ff       	callq  4011c0 <exit@plt>

0000000000402195 <sigalrmhandler>:
  402195:	48 83 ec 08          	sub    $0x8,%rsp
  402199:	83 3d 68 53 00 00 00 	cmpl   $0x0,0x5368(%rip)        # 407508 <is_checker>
  4021a0:	74 14                	je     4021b6 <sigalrmhandler+0x21>
  4021a2:	bf 9c 44 40 00       	mov    $0x40449c,%edi
  4021a7:	e8 c4 ee ff ff       	callq  401070 <puts@plt>
  4021ac:	b8 00 00 00 00       	mov    $0x0,%eax
  4021b1:	e8 63 fb ff ff       	callq  401d19 <check_fail>
  4021b6:	ba 05 00 00 00       	mov    $0x5,%edx
  4021bb:	be 38 46 40 00       	mov    $0x404638,%esi
  4021c0:	bf 01 00 00 00       	mov    $0x1,%edi
  4021c5:	b8 00 00 00 00       	mov    $0x0,%eax
  4021ca:	e8 b1 ef ff ff       	callq  401180 <__printf_chk@plt>
  4021cf:	be 00 00 00 00       	mov    $0x0,%esi
  4021d4:	bf 00 00 00 00       	mov    $0x0,%edi
  4021d9:	e8 c2 fb ff ff       	callq  401da0 <notify_server>
  4021de:	bf 01 00 00 00       	mov    $0x1,%edi
  4021e3:	e8 d8 ef ff ff       	callq  4011c0 <exit@plt>

00000000004021e8 <launch>:
  4021e8:	55                   	push   %rbp
  4021e9:	48 89 e5             	mov    %rsp,%rbp
  4021ec:	48 83 ec 10          	sub    $0x10,%rsp
  4021f0:	48 89 fa             	mov    %rdi,%rdx
  4021f3:	64 48 8b 04 25 28 00 	mov    %fs:0x28,%rax
  4021fa:	00 00 
  4021fc:	48 89 45 f8          	mov    %rax,-0x8(%rbp)
  402200:	31 c0                	xor    %eax,%eax
  402202:	48 8d 47 1e          	lea    0x1e(%rdi),%rax
  402206:	48 83 e0 f0          	and    $0xfffffffffffffff0,%rax
  40220a:	48 29 c4             	sub    %rax,%rsp
  40220d:	48 8d 7c 24 0f       	lea    0xf(%rsp),%rdi
  402212:	48 83 e7 f0          	and    $0xfffffffffffffff0,%rdi
  402216:	be f4 00 00 00       	mov    $0xf4,%esi
  40221b:	e8 90 ee ff ff       	callq  4010b0 <memset@plt>
  402220:	48 8b 05 79 52 00 00 	mov    0x5279(%rip),%rax        # 4074a0 <stdin@@GLIBC_2.2.5>
  402227:	48 39 05 c2 52 00 00 	cmp    %rax,0x52c2(%rip)        # 4074f0 <infile>
  40222e:	74 38                	je     402268 <launch+0x80>
  402230:	c7 05 c2 52 00 00 00 	movl   $0x0,0x52c2(%rip)        # 4074fc <vlevel>
  402237:	00 00 00 
  40223a:	b8 00 00 00 00       	mov    $0x0,%eax
  40223f:	e8 41 fa ff ff       	callq  401c85 <test>
  402244:	83 3d bd 52 00 00 00 	cmpl   $0x0,0x52bd(%rip)        # 407508 <is_checker>
  40224b:	75 31                	jne    40227e <launch+0x96>
  40224d:	bf bc 44 40 00       	mov    $0x4044bc,%edi
  402252:	e8 19 ee ff ff       	callq  401070 <puts@plt>
  402257:	48 8b 45 f8          	mov    -0x8(%rbp),%rax
  40225b:	64 48 33 04 25 28 00 	xor    %fs:0x28,%rax
  402262:	00 00 
  402264:	75 2c                	jne    402292 <launch+0xaa>
  402266:	c9                   	leaveq 
  402267:	c3                   	retq   
  402268:	be a4 44 40 00       	mov    $0x4044a4,%esi
  40226d:	bf 01 00 00 00       	mov    $0x1,%edi
  402272:	b8 00 00 00 00       	mov    $0x0,%eax
  402277:	e8 04 ef ff ff       	callq  401180 <__printf_chk@plt>
  40227c:	eb b2                	jmp    402230 <launch+0x48>
  40227e:	bf b1 44 40 00       	mov    $0x4044b1,%edi
  402283:	e8 e8 ed ff ff       	callq  401070 <puts@plt>
  402288:	b8 00 00 00 00       	mov    $0x0,%eax
  40228d:	e8 87 fa ff ff       	callq  401d19 <check_fail>
  402292:	e8 f9 ed ff ff       	callq  401090 <__stack_chk_fail@plt>

0000000000402297 <stable_launch>:
  402297:	53                   	push   %rbx
  402298:	48 89 3d 49 52 00 00 	mov    %rdi,0x5249(%rip)        # 4074e8 <global_offset>
  40229f:	41 b9 00 00 00 00    	mov    $0x0,%r9d
  4022a5:	41 b8 00 00 00 00    	mov    $0x0,%r8d
  4022ab:	b9 32 00 00 00       	mov    $0x32,%ecx
  4022b0:	ba 07 00 00 00       	mov    $0x7,%edx
  4022b5:	be 00 00 10 00       	mov    $0x100000,%esi
  4022ba:	bf 00 60 58 55       	mov    $0x55586000,%edi
  4022bf:	e8 dc ed ff ff       	callq  4010a0 <mmap@plt>
  4022c4:	48 89 c3             	mov    %rax,%rbx
  4022c7:	48 3d 00 60 58 55    	cmp    $0x55586000,%rax
  4022cd:	75 43                	jne    402312 <stable_launch+0x7b>
  4022cf:	48 8d 90 f8 ff 0f 00 	lea    0xffff8(%rax),%rdx
  4022d6:	48 89 15 53 5e 00 00 	mov    %rdx,0x5e53(%rip)        # 408130 <stack_top>
  4022dd:	48 89 e0             	mov    %rsp,%rax
  4022e0:	48 89 d4             	mov    %rdx,%rsp
  4022e3:	48 89 c2             	mov    %rax,%rdx
  4022e6:	48 89 15 f3 51 00 00 	mov    %rdx,0x51f3(%rip)        # 4074e0 <global_save_stack>
  4022ed:	48 8b 3d f4 51 00 00 	mov    0x51f4(%rip),%rdi        # 4074e8 <global_offset>
  4022f4:	e8 ef fe ff ff       	callq  4021e8 <launch>
  4022f9:	48 8b 05 e0 51 00 00 	mov    0x51e0(%rip),%rax        # 4074e0 <global_save_stack>
  402300:	48 89 c4             	mov    %rax,%rsp
  402303:	be 00 00 10 00       	mov    $0x100000,%esi
  402308:	48 89 df             	mov    %rbx,%rdi
  40230b:	e8 60 ee ff ff       	callq  401170 <munmap@plt>
  402310:	5b                   	pop    %rbx
  402311:	c3                   	retq   
  402312:	be 00 00 10 00       	mov    $0x100000,%esi
  402317:	48 89 c7             	mov    %rax,%rdi
  40231a:	e8 51 ee ff ff       	callq  401170 <munmap@plt>
  40231f:	b9 00 60 58 55       	mov    $0x55586000,%ecx
  402324:	ba 70 46 40 00       	mov    $0x404670,%edx
  402329:	be 01 00 00 00       	mov    $0x1,%esi
  40232e:	48 8b 3d 8b 51 00 00 	mov    0x518b(%rip),%rdi        # 4074c0 <stderr@@GLIBC_2.2.5>
  402335:	b8 00 00 00 00       	mov    $0x0,%eax
  40233a:	e8 a1 ee ff ff       	callq  4011e0 <__fprintf_chk@plt>
  40233f:	bf 01 00 00 00       	mov    $0x1,%edi
  402344:	e8 77 ee ff ff       	callq  4011c0 <exit@plt>

0000000000402349 <rio_readinitb>:
  402349:	89 37                	mov    %esi,(%rdi)
  40234b:	c7 47 04 00 00 00 00 	movl   $0x0,0x4(%rdi)
  402352:	48 8d 47 10          	lea    0x10(%rdi),%rax
  402356:	48 89 47 08          	mov    %rax,0x8(%rdi)
  40235a:	c3                   	retq   

000000000040235b <sigalrm_handler>:
  40235b:	48 83 ec 08          	sub    $0x8,%rsp
  40235f:	b9 00 00 00 00       	mov    $0x0,%ecx
  402364:	ba b0 46 40 00       	mov    $0x4046b0,%edx
  402369:	be 01 00 00 00       	mov    $0x1,%esi
  40236e:	48 8b 3d 4b 51 00 00 	mov    0x514b(%rip),%rdi        # 4074c0 <stderr@@GLIBC_2.2.5>
  402375:	b8 00 00 00 00       	mov    $0x0,%eax
  40237a:	e8 61 ee ff ff       	callq  4011e0 <__fprintf_chk@plt>
  40237f:	bf 01 00 00 00       	mov    $0x1,%edi
  402384:	e8 37 ee ff ff       	callq  4011c0 <exit@plt>

0000000000402389 <rio_writen>:
  402389:	41 55                	push   %r13
  40238b:	41 54                	push   %r12
  40238d:	55                   	push   %rbp
  40238e:	53                   	push   %rbx
  40238f:	48 83 ec 08          	sub    $0x8,%rsp
  402393:	41 89 fc             	mov    %edi,%r12d
  402396:	48 89 f5             	mov    %rsi,%rbp
  402399:	49 89 d5             	mov    %rdx,%r13
  40239c:	48 89 d3             	mov    %rdx,%rbx
  40239f:	eb 06                	jmp    4023a7 <rio_writen+0x1e>
  4023a1:	48 29 c3             	sub    %rax,%rbx
  4023a4:	48 01 c5             	add    %rax,%rbp
  4023a7:	48 85 db             	test   %rbx,%rbx
  4023aa:	74 24                	je     4023d0 <rio_writen+0x47>
  4023ac:	48 89 da             	mov    %rbx,%rdx
  4023af:	48 89 ee             	mov    %rbp,%rsi
  4023b2:	44 89 e7             	mov    %r12d,%edi
  4023b5:	e8 c6 ec ff ff       	callq  401080 <write@plt>
  4023ba:	48 85 c0             	test   %rax,%rax
  4023bd:	7f e2                	jg     4023a1 <rio_writen+0x18>
  4023bf:	e8 6c ec ff ff       	callq  401030 <__errno_location@plt>
  4023c4:	83 38 04             	cmpl   $0x4,(%rax)
  4023c7:	75 15                	jne    4023de <rio_writen+0x55>
  4023c9:	b8 00 00 00 00       	mov    $0x0,%eax
  4023ce:	eb d1                	jmp    4023a1 <rio_writen+0x18>
  4023d0:	4c 89 e8             	mov    %r13,%rax
  4023d3:	48 83 c4 08          	add    $0x8,%rsp
  4023d7:	5b                   	pop    %rbx
  4023d8:	5d                   	pop    %rbp
  4023d9:	41 5c                	pop    %r12
  4023db:	41 5d                	pop    %r13
  4023dd:	c3                   	retq   
  4023de:	48 c7 c0 ff ff ff ff 	mov    $0xffffffffffffffff,%rax
  4023e5:	eb ec                	jmp    4023d3 <rio_writen+0x4a>

00000000004023e7 <rio_read>:
  4023e7:	41 55                	push   %r13
  4023e9:	41 54                	push   %r12
  4023eb:	55                   	push   %rbp
  4023ec:	53                   	push   %rbx
  4023ed:	48 83 ec 08          	sub    $0x8,%rsp
  4023f1:	48 89 fb             	mov    %rdi,%rbx
  4023f4:	49 89 f5             	mov    %rsi,%r13
  4023f7:	49 89 d4             	mov    %rdx,%r12
  4023fa:	eb 0a                	jmp    402406 <rio_read+0x1f>
  4023fc:	e8 2f ec ff ff       	callq  401030 <__errno_location@plt>
  402401:	83 38 04             	cmpl   $0x4,(%rax)
  402404:	75 5c                	jne    402462 <rio_read+0x7b>
  402406:	8b 6b 04             	mov    0x4(%rbx),%ebp
  402409:	85 ed                	test   %ebp,%ebp
  40240b:	7f 24                	jg     402431 <rio_read+0x4a>
  40240d:	48 8d 6b 10          	lea    0x10(%rbx),%rbp
  402411:	8b 3b                	mov    (%rbx),%edi
  402413:	ba 00 20 00 00       	mov    $0x2000,%edx
  402418:	48 89 ee             	mov    %rbp,%rsi
  40241b:	e8 c0 ec ff ff       	callq  4010e0 <read@plt>
  402420:	89 43 04             	mov    %eax,0x4(%rbx)
  402423:	85 c0                	test   %eax,%eax
  402425:	78 d5                	js     4023fc <rio_read+0x15>
  402427:	85 c0                	test   %eax,%eax
  402429:	74 40                	je     40246b <rio_read+0x84>
  40242b:	48 89 6b 08          	mov    %rbp,0x8(%rbx)
  40242f:	eb d5                	jmp    402406 <rio_read+0x1f>
  402431:	89 e8                	mov    %ebp,%eax
  402433:	4c 39 e0             	cmp    %r12,%rax
  402436:	72 03                	jb     40243b <rio_read+0x54>
  402438:	44 89 e5             	mov    %r12d,%ebp
  40243b:	4c 63 e5             	movslq %ebp,%r12
  40243e:	48 8b 73 08          	mov    0x8(%rbx),%rsi
  402442:	4c 89 e2             	mov    %r12,%rdx
  402445:	4c 89 ef             	mov    %r13,%rdi
  402448:	e8 e3 ec ff ff       	callq  401130 <memcpy@plt>
  40244d:	4c 01 63 08          	add    %r12,0x8(%rbx)
  402451:	29 6b 04             	sub    %ebp,0x4(%rbx)
  402454:	4c 89 e0             	mov    %r12,%rax
  402457:	48 83 c4 08          	add    $0x8,%rsp
  40245b:	5b                   	pop    %rbx
  40245c:	5d                   	pop    %rbp
  40245d:	41 5c                	pop    %r12
  40245f:	41 5d                	pop    %r13
  402461:	c3                   	retq   
  402462:	48 c7 c0 ff ff ff ff 	mov    $0xffffffffffffffff,%rax
  402469:	eb ec                	jmp    402457 <rio_read+0x70>
  40246b:	b8 00 00 00 00       	mov    $0x0,%eax
  402470:	eb e5                	jmp    402457 <rio_read+0x70>

0000000000402472 <rio_readlineb>:
  402472:	41 55                	push   %r13
  402474:	41 54                	push   %r12
  402476:	55                   	push   %rbp
  402477:	53                   	push   %rbx
  402478:	48 83 ec 18          	sub    $0x18,%rsp
  40247c:	49 89 fd             	mov    %rdi,%r13
  40247f:	48 89 f5             	mov    %rsi,%rbp
  402482:	49 89 d4             	mov    %rdx,%r12
  402485:	64 48 8b 04 25 28 00 	mov    %fs:0x28,%rax
  40248c:	00 00 
  40248e:	48 89 44 24 08       	mov    %rax,0x8(%rsp)
  402493:	31 c0                	xor    %eax,%eax
  402495:	bb 01 00 00 00       	mov    $0x1,%ebx
  40249a:	4c 39 e3             	cmp    %r12,%rbx
  40249d:	73 47                	jae    4024e6 <rio_readlineb+0x74>
  40249f:	ba 01 00 00 00       	mov    $0x1,%edx
  4024a4:	48 8d 74 24 07       	lea    0x7(%rsp),%rsi
  4024a9:	4c 89 ef             	mov    %r13,%rdi
  4024ac:	e8 36 ff ff ff       	callq  4023e7 <rio_read>
  4024b1:	83 f8 01             	cmp    $0x1,%eax
  4024b4:	75 1c                	jne    4024d2 <rio_readlineb+0x60>
  4024b6:	48 8d 45 01          	lea    0x1(%rbp),%rax
  4024ba:	0f b6 54 24 07       	movzbl 0x7(%rsp),%edx
  4024bf:	88 55 00             	mov    %dl,0x0(%rbp)
  4024c2:	80 7c 24 07 0a       	cmpb   $0xa,0x7(%rsp)
  4024c7:	74 1a                	je     4024e3 <rio_readlineb+0x71>
  4024c9:	48 83 c3 01          	add    $0x1,%rbx
  4024cd:	48 89 c5             	mov    %rax,%rbp
  4024d0:	eb c8                	jmp    40249a <rio_readlineb+0x28>
  4024d2:	85 c0                	test   %eax,%eax
  4024d4:	75 32                	jne    402508 <rio_readlineb+0x96>
  4024d6:	48 83 fb 01          	cmp    $0x1,%rbx
  4024da:	75 0a                	jne    4024e6 <rio_readlineb+0x74>
  4024dc:	b8 00 00 00 00       	mov    $0x0,%eax
  4024e1:	eb 0a                	jmp    4024ed <rio_readlineb+0x7b>
  4024e3:	48 89 c5             	mov    %rax,%rbp
  4024e6:	c6 45 00 00          	movb   $0x0,0x0(%rbp)
  4024ea:	48 89 d8             	mov    %rbx,%rax
  4024ed:	48 8b 4c 24 08       	mov    0x8(%rsp),%rcx
  4024f2:	64 48 33 0c 25 28 00 	xor    %fs:0x28,%rcx
  4024f9:	00 00 
  4024fb:	75 14                	jne    402511 <rio_readlineb+0x9f>
  4024fd:	48 83 c4 18          	add    $0x18,%rsp
  402501:	5b                   	pop    %rbx
  402502:	5d                   	pop    %rbp
  402503:	41 5c                	pop    %r12
  402505:	41 5d                	pop    %r13
  402507:	c3                   	retq   
  402508:	48 c7 c0 ff ff ff ff 	mov    $0xffffffffffffffff,%rax
  40250f:	eb dc                	jmp    4024ed <rio_readlineb+0x7b>
  402511:	e8 7a eb ff ff       	callq  401090 <__stack_chk_fail@plt>

0000000000402516 <urlencode>:
  402516:	41 54                	push   %r12
  402518:	55                   	push   %rbp
  402519:	53                   	push   %rbx
  40251a:	48 83 ec 10          	sub    $0x10,%rsp
  40251e:	48 89 fb             	mov    %rdi,%rbx
  402521:	48 89 f5             	mov    %rsi,%rbp
  402524:	64 48 8b 04 25 28 00 	mov    %fs:0x28,%rax
  40252b:	00 00 
  40252d:	48 89 44 24 08       	mov    %rax,0x8(%rsp)
  402532:	31 c0                	xor    %eax,%eax
  402534:	48 c7 c1 ff ff ff ff 	mov    $0xffffffffffffffff,%rcx
  40253b:	f2 ae                	repnz scas %es:(%rdi),%al
  40253d:	48 89 ce             	mov    %rcx,%rsi
  402540:	48 f7 d6             	not    %rsi
  402543:	8d 46 ff             	lea    -0x1(%rsi),%eax
  402546:	eb 0f                	jmp    402557 <urlencode+0x41>
  402548:	44 88 45 00          	mov    %r8b,0x0(%rbp)
  40254c:	48 8d 6d 01          	lea    0x1(%rbp),%rbp
  402550:	48 83 c3 01          	add    $0x1,%rbx
  402554:	44 89 e0             	mov    %r12d,%eax
  402557:	44 8d 60 ff          	lea    -0x1(%rax),%r12d
  40255b:	85 c0                	test   %eax,%eax
  40255d:	0f 84 a6 00 00 00    	je     402609 <urlencode+0xf3>
  402563:	44 0f b6 03          	movzbl (%rbx),%r8d
  402567:	41 80 f8 2a          	cmp    $0x2a,%r8b
  40256b:	0f 94 c2             	sete   %dl
  40256e:	41 80 f8 2d          	cmp    $0x2d,%r8b
  402572:	0f 94 c0             	sete   %al
  402575:	08 c2                	or     %al,%dl
  402577:	75 cf                	jne    402548 <urlencode+0x32>
  402579:	41 80 f8 2e          	cmp    $0x2e,%r8b
  40257d:	74 c9                	je     402548 <urlencode+0x32>
  40257f:	41 80 f8 5f          	cmp    $0x5f,%r8b
  402583:	74 c3                	je     402548 <urlencode+0x32>
  402585:	41 8d 40 d0          	lea    -0x30(%r8),%eax
  402589:	3c 09                	cmp    $0x9,%al
  40258b:	76 bb                	jbe    402548 <urlencode+0x32>
  40258d:	41 8d 40 bf          	lea    -0x41(%r8),%eax
  402591:	3c 19                	cmp    $0x19,%al
  402593:	76 b3                	jbe    402548 <urlencode+0x32>
  402595:	41 8d 40 9f          	lea    -0x61(%r8),%eax
  402599:	3c 19                	cmp    $0x19,%al
  40259b:	76 ab                	jbe    402548 <urlencode+0x32>
  40259d:	41 80 f8 20          	cmp    $0x20,%r8b
  4025a1:	74 54                	je     4025f7 <urlencode+0xe1>
  4025a3:	41 8d 40 e0          	lea    -0x20(%r8),%eax
  4025a7:	3c 5f                	cmp    $0x5f,%al
  4025a9:	0f 96 c2             	setbe  %dl
  4025ac:	41 80 f8 09          	cmp    $0x9,%r8b
  4025b0:	0f 94 c0             	sete   %al
  4025b3:	08 c2                	or     %al,%dl
  4025b5:	74 4d                	je     402604 <urlencode+0xee>
  4025b7:	45 0f b6 c0          	movzbl %r8b,%r8d
  4025bb:	b9 45 47 40 00       	mov    $0x404745,%ecx
  4025c0:	ba 08 00 00 00       	mov    $0x8,%edx
  4025c5:	be 01 00 00 00       	mov    $0x1,%esi
  4025ca:	48 89 e7             	mov    %rsp,%rdi
  4025cd:	b8 00 00 00 00       	mov    $0x0,%eax
  4025d2:	e8 29 ec ff ff       	callq  401200 <__sprintf_chk@plt>
  4025d7:	0f b6 04 24          	movzbl (%rsp),%eax
  4025db:	88 45 00             	mov    %al,0x0(%rbp)
  4025de:	0f b6 44 24 01       	movzbl 0x1(%rsp),%eax
  4025e3:	88 45 01             	mov    %al,0x1(%rbp)
  4025e6:	0f b6 44 24 02       	movzbl 0x2(%rsp),%eax
  4025eb:	88 45 02             	mov    %al,0x2(%rbp)
  4025ee:	48 8d 6d 03          	lea    0x3(%rbp),%rbp
  4025f2:	e9 59 ff ff ff       	jmpq   402550 <urlencode+0x3a>
  4025f7:	c6 45 00 2b          	movb   $0x2b,0x0(%rbp)
  4025fb:	48 8d 6d 01          	lea    0x1(%rbp),%rbp
  4025ff:	e9 4c ff ff ff       	jmpq   402550 <urlencode+0x3a>
  402604:	b8 ff ff ff ff       	mov    $0xffffffff,%eax
  402609:	48 8b 74 24 08       	mov    0x8(%rsp),%rsi
  40260e:	64 48 33 34 25 28 00 	xor    %fs:0x28,%rsi
  402615:	00 00 
  402617:	75 09                	jne    402622 <urlencode+0x10c>
  402619:	48 83 c4 10          	add    $0x10,%rsp
  40261d:	5b                   	pop    %rbx
  40261e:	5d                   	pop    %rbp
  40261f:	41 5c                	pop    %r12
  402621:	c3                   	retq   
  402622:	e8 69 ea ff ff       	callq  401090 <__stack_chk_fail@plt>

0000000000402627 <submitr>:
  402627:	4c 8d 54 24 08       	lea    0x8(%rsp),%r10
  40262c:	48 83 e4 f0          	and    $0xfffffffffffffff0,%rsp
  402630:	41 ff 72 f8          	pushq  -0x8(%r10)
  402634:	55                   	push   %rbp
  402635:	48 89 e5             	mov    %rsp,%rbp
  402638:	41 57                	push   %r15
  40263a:	41 56                	push   %r14
  40263c:	41 55                	push   %r13
  40263e:	41 54                	push   %r12
  402640:	41 52                	push   %r10
  402642:	53                   	push   %rbx
  402643:	48 81 ec 60 a0 00 00 	sub    $0xa060,%rsp
  40264a:	49 89 fe             	mov    %rdi,%r14
  40264d:	89 b5 84 5f ff ff    	mov    %esi,-0xa07c(%rbp)
  402653:	49 89 d7             	mov    %rdx,%r15
  402656:	48 89 8d 88 5f ff ff 	mov    %rcx,-0xa078(%rbp)
  40265d:	4c 89 85 78 5f ff ff 	mov    %r8,-0xa088(%rbp)
  402664:	4d 89 cd             	mov    %r9,%r13
  402667:	4d 8b 22             	mov    (%r10),%r12
  40266a:	64 48 8b 04 25 28 00 	mov    %fs:0x28,%rax
  402671:	00 00 
  402673:	48 89 45 c8          	mov    %rax,-0x38(%rbp)
  402677:	31 c0                	xor    %eax,%eax
  402679:	c7 85 9c 5f ff ff 00 	movl   $0x0,-0xa064(%rbp)
  402680:	00 00 00 
  402683:	ba 00 00 00 00       	mov    $0x0,%edx
  402688:	be 01 00 00 00       	mov    $0x1,%esi
  40268d:	bf 02 00 00 00       	mov    $0x2,%edi
  402692:	e8 79 eb ff ff       	callq  401210 <socket@plt>
  402697:	85 c0                	test   %eax,%eax
  402699:	0f 88 bf 02 00 00    	js     40295e <submitr+0x337>
  40269f:	89 c3                	mov    %eax,%ebx
  4026a1:	4c 89 f7             	mov    %r14,%rdi
  4026a4:	e8 57 ea ff ff       	callq  401100 <gethostbyname@plt>
  4026a9:	48 85 c0             	test   %rax,%rax
  4026ac:	0f 84 ff 02 00 00    	je     4029b1 <submitr+0x38a>
  4026b2:	48 c7 85 a2 5f ff ff 	movq   $0x0,-0xa05e(%rbp)
  4026b9:	00 00 00 00 
  4026bd:	c7 85 aa 5f ff ff 00 	movl   $0x0,-0xa056(%rbp)
  4026c4:	00 00 00 
  4026c7:	66 c7 85 ae 5f ff ff 	movw   $0x0,-0xa052(%rbp)
  4026ce:	00 00 
  4026d0:	66 c7 85 a0 5f ff ff 	movw   $0x2,-0xa060(%rbp)
  4026d7:	02 00 
  4026d9:	48 63 50 14          	movslq 0x14(%rax),%rdx
  4026dd:	48 8b 40 18          	mov    0x18(%rax),%rax
  4026e1:	48 8b 30             	mov    (%rax),%rsi
  4026e4:	48 8d 85 a0 5f ff ff 	lea    -0xa060(%rbp),%rax
  4026eb:	48 8d 78 04          	lea    0x4(%rax),%rdi
  4026ef:	b9 0c 00 00 00       	mov    $0xc,%ecx
  4026f4:	e8 17 ea ff ff       	callq  401110 <__memmove_chk@plt>
  4026f9:	0f b7 85 84 5f ff ff 	movzwl -0xa07c(%rbp),%eax
  402700:	66 c1 c0 08          	rol    $0x8,%ax
  402704:	66 89 85 a2 5f ff ff 	mov    %ax,-0xa05e(%rbp)
  40270b:	ba 10 00 00 00       	mov    $0x10,%edx
  402710:	48 8d b5 a0 5f ff ff 	lea    -0xa060(%rbp),%rsi
  402717:	89 df                	mov    %ebx,%edi
  402719:	e8 b2 ea ff ff       	callq  4011d0 <connect@plt>
  40271e:	85 c0                	test   %eax,%eax
  402720:	0f 88 fd 02 00 00    	js     402a23 <submitr+0x3fc>
  402726:	48 c7 c6 ff ff ff ff 	mov    $0xffffffffffffffff,%rsi
  40272d:	b8 00 00 00 00       	mov    $0x0,%eax
  402732:	48 89 f1             	mov    %rsi,%rcx
  402735:	4c 89 ef             	mov    %r13,%rdi
  402738:	f2 ae                	repnz scas %es:(%rdi),%al
  40273a:	48 89 ca             	mov    %rcx,%rdx
  40273d:	48 f7 d2             	not    %rdx
  402740:	48 89 f1             	mov    %rsi,%rcx
  402743:	4c 89 ff             	mov    %r15,%rdi
  402746:	f2 ae                	repnz scas %es:(%rdi),%al
  402748:	48 f7 d1             	not    %rcx
  40274b:	49 89 c8             	mov    %rcx,%r8
  40274e:	48 89 f1             	mov    %rsi,%rcx
  402751:	48 8b bd 88 5f ff ff 	mov    -0xa078(%rbp),%rdi
  402758:	f2 ae                	repnz scas %es:(%rdi),%al
  40275a:	48 f7 d1             	not    %rcx
  40275d:	4d 8d 44 08 fe       	lea    -0x2(%r8,%rcx,1),%r8
  402762:	48 89 f1             	mov    %rsi,%rcx
  402765:	48 8b bd 78 5f ff ff 	mov    -0xa088(%rbp),%rdi
  40276c:	f2 ae                	repnz scas %es:(%rdi),%al
  40276e:	48 89 c8             	mov    %rcx,%rax
  402771:	48 f7 d0             	not    %rax
  402774:	49 8d 4c 00 ff       	lea    -0x1(%r8,%rax,1),%rcx
  402779:	48 8d 44 52 fd       	lea    -0x3(%rdx,%rdx,2),%rax
  40277e:	48 8d 84 01 80 00 00 	lea    0x80(%rcx,%rax,1),%rax
  402785:	00 
  402786:	48 3d 00 20 00 00    	cmp    $0x2000,%rax
  40278c:	0f 87 f4 02 00 00    	ja     402a86 <submitr+0x45f>
  402792:	48 8d b5 c0 9f ff ff 	lea    -0x6040(%rbp),%rsi
  402799:	b9 00 04 00 00       	mov    $0x400,%ecx
  40279e:	b8 00 00 00 00       	mov    $0x0,%eax
  4027a3:	48 89 f7             	mov    %rsi,%rdi
  4027a6:	f3 48 ab             	rep stos %rax,%es:(%rdi)
  4027a9:	4c 89 ef             	mov    %r13,%rdi
  4027ac:	e8 65 fd ff ff       	callq  402516 <urlencode>
  4027b1:	85 c0                	test   %eax,%eax
  4027b3:	0f 88 46 03 00 00    	js     402aff <submitr+0x4d8>
  4027b9:	4c 8d ad c0 7f ff ff 	lea    -0x8040(%rbp),%r13
  4027c0:	41 56                	push   %r14
  4027c2:	48 8d 85 c0 9f ff ff 	lea    -0x6040(%rbp),%rax
  4027c9:	50                   	push   %rax
  4027ca:	4d 89 f9             	mov    %r15,%r9
  4027cd:	4c 8b 85 88 5f ff ff 	mov    -0xa078(%rbp),%r8
  4027d4:	b9 d8 46 40 00       	mov    $0x4046d8,%ecx
  4027d9:	ba 00 20 00 00       	mov    $0x2000,%edx
  4027de:	be 01 00 00 00       	mov    $0x1,%esi
  4027e3:	4c 89 ef             	mov    %r13,%rdi
  4027e6:	b8 00 00 00 00       	mov    $0x0,%eax
  4027eb:	e8 10 ea ff ff       	callq  401200 <__sprintf_chk@plt>
  4027f0:	48 c7 c1 ff ff ff ff 	mov    $0xffffffffffffffff,%rcx
  4027f7:	b8 00 00 00 00       	mov    $0x0,%eax
  4027fc:	4c 89 ef             	mov    %r13,%rdi
  4027ff:	f2 ae                	repnz scas %es:(%rdi),%al
  402801:	48 89 ca             	mov    %rcx,%rdx
  402804:	48 f7 d2             	not    %rdx
  402807:	48 8d 52 ff          	lea    -0x1(%rdx),%rdx
  40280b:	4c 89 ee             	mov    %r13,%rsi
  40280e:	89 df                	mov    %ebx,%edi
  402810:	e8 74 fb ff ff       	callq  402389 <rio_writen>
  402815:	48 83 c4 10          	add    $0x10,%rsp
  402819:	48 85 c0             	test   %rax,%rax
  40281c:	0f 88 73 03 00 00    	js     402b95 <submitr+0x56e>
  402822:	89 de                	mov    %ebx,%esi
  402824:	48 8d bd b0 5f ff ff 	lea    -0xa050(%rbp),%rdi
  40282b:	e8 19 fb ff ff       	callq  402349 <rio_readinitb>
  402830:	ba 00 20 00 00       	mov    $0x2000,%edx
  402835:	48 8d b5 c0 7f ff ff 	lea    -0x8040(%rbp),%rsi
  40283c:	48 8d bd b0 5f ff ff 	lea    -0xa050(%rbp),%rdi
  402843:	e8 2a fc ff ff       	callq  402472 <rio_readlineb>
  402848:	48 85 c0             	test   %rax,%rax
  40284b:	0f 8e bc 03 00 00    	jle    402c0d <submitr+0x5e6>
  402851:	4c 8d 85 c0 df ff ff 	lea    -0x2040(%rbp),%r8
  402858:	48 8d 8d 9c 5f ff ff 	lea    -0xa064(%rbp),%rcx
  40285f:	48 8d 95 c0 bf ff ff 	lea    -0x4040(%rbp),%rdx
  402866:	be 4c 47 40 00       	mov    $0x40474c,%esi
  40286b:	48 8d bd c0 7f ff ff 	lea    -0x8040(%rbp),%rdi
  402872:	b8 00 00 00 00       	mov    $0x0,%eax
  402877:	e8 e4 e8 ff ff       	callq  401160 <__isoc99_sscanf@plt>
  40287c:	48 8d b5 c0 7f ff ff 	lea    -0x8040(%rbp),%rsi
  402883:	bf 63 47 40 00       	mov    $0x404763,%edi
  402888:	b9 03 00 00 00       	mov    $0x3,%ecx
  40288d:	f3 a6                	repz cmpsb %es:(%rdi),%ds:(%rsi)
  40288f:	0f 97 c0             	seta   %al
  402892:	1c 00                	sbb    $0x0,%al
  402894:	84 c0                	test   %al,%al
  402896:	0f 84 f9 03 00 00    	je     402c95 <submitr+0x66e>
  40289c:	ba 00 20 00 00       	mov    $0x2000,%edx
  4028a1:	48 8d b5 c0 7f ff ff 	lea    -0x8040(%rbp),%rsi
  4028a8:	48 8d bd b0 5f ff ff 	lea    -0xa050(%rbp),%rdi
  4028af:	e8 be fb ff ff       	callq  402472 <rio_readlineb>
  4028b4:	48 85 c0             	test   %rax,%rax
  4028b7:	7f c3                	jg     40287c <submitr+0x255>
  4028b9:	48 b8 45 72 72 6f 72 	movabs $0x43203a726f727245,%rax
  4028c0:	3a 20 43 
  4028c3:	48 ba 6c 69 65 6e 74 	movabs $0x6e7520746e65696c,%rdx
  4028ca:	20 75 6e 
  4028cd:	49 89 04 24          	mov    %rax,(%r12)
  4028d1:	49 89 54 24 08       	mov    %rdx,0x8(%r12)
  4028d6:	48 b8 61 62 6c 65 20 	movabs $0x206f7420656c6261,%rax
  4028dd:	74 6f 20 
  4028e0:	48 ba 72 65 61 64 20 	movabs $0x6165682064616572,%rdx
  4028e7:	68 65 61 
  4028ea:	49 89 44 24 10       	mov    %rax,0x10(%r12)
  4028ef:	49 89 54 24 18       	mov    %rdx,0x18(%r12)
  4028f4:	48 b8 64 65 72 73 20 	movabs $0x6f72662073726564,%rax
  4028fb:	66 72 6f 
  4028fe:	48 ba 6d 20 74 68 65 	movabs $0x657220656874206d,%rdx
  402905:	20 72 65 
  402908:	49 89 44 24 20       	mov    %rax,0x20(%r12)
  40290d:	49 89 54 24 28       	mov    %rdx,0x28(%r12)
  402912:	48 b8 73 75 6c 74 20 	movabs $0x72657320746c7573,%rax
  402919:	73 65 72 
  40291c:	49 89 44 24 30       	mov    %rax,0x30(%r12)
  402921:	41 c7 44 24 38 76 65 	movl   $0x726576,0x38(%r12)
  402928:	72 00 
  40292a:	89 df                	mov    %ebx,%edi
  40292c:	e8 9f e7 ff ff       	callq  4010d0 <close@plt>
  402931:	b8 ff ff ff ff       	mov    $0xffffffff,%eax
  402936:	48 8b 5d c8          	mov    -0x38(%rbp),%rbx
  40293a:	64 48 33 1c 25 28 00 	xor    %fs:0x28,%rbx
  402941:	00 00 
  402943:	0f 85 c4 04 00 00    	jne    402e0d <submitr+0x7e6>
  402949:	48 8d 65 d0          	lea    -0x30(%rbp),%rsp
  40294d:	5b                   	pop    %rbx
  40294e:	41 5a                	pop    %r10
  402950:	41 5c                	pop    %r12
  402952:	41 5d                	pop    %r13
  402954:	41 5e                	pop    %r14
  402956:	41 5f                	pop    %r15
  402958:	5d                   	pop    %rbp
  402959:	49 8d 62 f8          	lea    -0x8(%r10),%rsp
  40295d:	c3                   	retq   
  40295e:	48 b8 45 72 72 6f 72 	movabs $0x43203a726f727245,%rax
  402965:	3a 20 43 
  402968:	48 ba 6c 69 65 6e 74 	movabs $0x6e7520746e65696c,%rdx
  40296f:	20 75 6e 
  402972:	49 89 04 24          	mov    %rax,(%r12)
  402976:	49 89 54 24 08       	mov    %rdx,0x8(%r12)
  40297b:	48 b8 61 62 6c 65 20 	movabs $0x206f7420656c6261,%rax
  402982:	74 6f 20 
  402985:	48 ba 63 72 65 61 74 	movabs $0x7320657461657263,%rdx
  40298c:	65 20 73 
  40298f:	49 89 44 24 10       	mov    %rax,0x10(%r12)
  402994:	49 89 54 24 18       	mov    %rdx,0x18(%r12)
  402999:	41 c7 44 24 20 6f 63 	movl   $0x656b636f,0x20(%r12)
  4029a0:	6b 65 
  4029a2:	66 41 c7 44 24 24 74 	movw   $0x74,0x24(%r12)
  4029a9:	00 
  4029aa:	b8 ff ff ff ff       	mov    $0xffffffff,%eax
  4029af:	eb 85                	jmp    402936 <submitr+0x30f>
  4029b1:	48 b8 45 72 72 6f 72 	movabs $0x44203a726f727245,%rax
  4029b8:	3a 20 44 
  4029bb:	48 ba 4e 53 20 69 73 	movabs $0x6e7520736920534e,%rdx
  4029c2:	20 75 6e 
  4029c5:	49 89 04 24          	mov    %rax,(%r12)
  4029c9:	49 89 54 24 08       	mov    %rdx,0x8(%r12)
  4029ce:	48 b8 61 62 6c 65 20 	movabs $0x206f7420656c6261,%rax
  4029d5:	74 6f 20 
  4029d8:	48 ba 72 65 73 6f 6c 	movabs $0x2065766c6f736572,%rdx
  4029df:	76 65 20 
  4029e2:	49 89 44 24 10       	mov    %rax,0x10(%r12)
  4029e7:	49 89 54 24 18       	mov    %rdx,0x18(%r12)
  4029ec:	48 b8 73 65 72 76 65 	movabs $0x6120726576726573,%rax
  4029f3:	72 20 61 
  4029f6:	49 89 44 24 20       	mov    %rax,0x20(%r12)
  4029fb:	41 c7 44 24 28 64 64 	movl   $0x65726464,0x28(%r12)
  402a02:	72 65 
  402a04:	66 41 c7 44 24 2c 73 	movw   $0x7373,0x2c(%r12)
  402a0b:	73 
  402a0c:	41 c6 44 24 2e 00    	movb   $0x0,0x2e(%r12)
  402a12:	89 df                	mov    %ebx,%edi
  402a14:	e8 b7 e6 ff ff       	callq  4010d0 <close@plt>
  402a19:	b8 ff ff ff ff       	mov    $0xffffffff,%eax
  402a1e:	e9 13 ff ff ff       	jmpq   402936 <submitr+0x30f>
  402a23:	48 b8 45 72 72 6f 72 	movabs $0x55203a726f727245,%rax
  402a2a:	3a 20 55 
  402a2d:	48 ba 6e 61 62 6c 65 	movabs $0x6f7420656c62616e,%rdx
  402a34:	20 74 6f 
  402a37:	49 89 04 24          	mov    %rax,(%r12)
  402a3b:	49 89 54 24 08       	mov    %rdx,0x8(%r12)
  402a40:	48 b8 20 63 6f 6e 6e 	movabs $0x7463656e6e6f6320,%rax
  402a47:	65 63 74 
  402a4a:	48 ba 20 74 6f 20 74 	movabs $0x20656874206f7420,%rdx
  402a51:	68 65 20 
  402a54:	49 89 44 24 10       	mov    %rax,0x10(%r12)
  402a59:	49 89 54 24 18       	mov    %rdx,0x18(%r12)
  402a5e:	41 c7 44 24 20 73 65 	movl   $0x76726573,0x20(%r12)
  402a65:	72 76 
  402a67:	66 41 c7 44 24 24 65 	movw   $0x7265,0x24(%r12)
  402a6e:	72 
  402a6f:	41 c6 44 24 26 00    	movb   $0x0,0x26(%r12)
  402a75:	89 df                	mov    %ebx,%edi
  402a77:	e8 54 e6 ff ff       	callq  4010d0 <close@plt>
  402a7c:	b8 ff ff ff ff       	mov    $0xffffffff,%eax
  402a81:	e9 b0 fe ff ff       	jmpq   402936 <submitr+0x30f>
  402a86:	48 b8 45 72 72 6f 72 	movabs $0x52203a726f727245,%rax
  402a8d:	3a 20 52 
  402a90:	48 ba 65 73 75 6c 74 	movabs $0x747320746c757365,%rdx
  402a97:	20 73 74 
  402a9a:	49 89 04 24          	mov    %rax,(%r12)
  402a9e:	49 89 54 24 08       	mov    %rdx,0x8(%r12)
  402aa3:	48 b8 72 69 6e 67 20 	movabs $0x6f6f7420676e6972,%rax
  402aaa:	74 6f 6f 
  402aad:	48 ba 20 6c 61 72 67 	movabs $0x202e656772616c20,%rdx
  402ab4:	65 2e 20 
  402ab7:	49 89 44 24 10       	mov    %rax,0x10(%r12)
  402abc:	49 89 54 24 18       	mov    %rdx,0x18(%r12)
  402ac1:	48 b8 49 6e 63 72 65 	movabs $0x6573616572636e49,%rax
  402ac8:	61 73 65 
  402acb:	48 ba 20 53 55 42 4d 	movabs $0x5254494d42555320,%rdx
  402ad2:	49 54 52 
  402ad5:	49 89 44 24 20       	mov    %rax,0x20(%r12)
  402ada:	49 89 54 24 28       	mov    %rdx,0x28(%r12)
  402adf:	48 b8 5f 4d 41 58 42 	movabs $0x46554258414d5f,%rax
  402ae6:	55 46 00 
  402ae9:	49 89 44 24 30       	mov    %rax,0x30(%r12)
  402aee:	89 df                	mov    %ebx,%edi
  402af0:	e8 db e5 ff ff       	callq  4010d0 <close@plt>
  402af5:	b8 ff ff ff ff       	mov    $0xffffffff,%eax
  402afa:	e9 37 fe ff ff       	jmpq   402936 <submitr+0x30f>
  402aff:	48 b8 45 72 72 6f 72 	movabs $0x52203a726f727245,%rax
  402b06:	3a 20 52 
  402b09:	48 ba 65 73 75 6c 74 	movabs $0x747320746c757365,%rdx
  402b10:	20 73 74 
  402b13:	49 89 04 24          	mov    %rax,(%r12)
  402b17:	49 89 54 24 08       	mov    %rdx,0x8(%r12)
  402b1c:	48 b8 72 69 6e 67 20 	movabs $0x6e6f6320676e6972,%rax
  402b23:	63 6f 6e 
  402b26:	48 ba 74 61 69 6e 73 	movabs $0x6e6120736e696174,%rdx
  402b2d:	20 61 6e 
  402b30:	49 89 44 24 10       	mov    %rax,0x10(%r12)
  402b35:	49 89 54 24 18       	mov    %rdx,0x18(%r12)
  402b3a:	48 b8 20 69 6c 6c 65 	movabs $0x6c6167656c6c6920,%rax
  402b41:	67 61 6c 
  402b44:	48 ba 20 6f 72 20 75 	movabs $0x72706e7520726f20,%rdx
  402b4b:	6e 70 72 
  402b4e:	49 89 44 24 20       	mov    %rax,0x20(%r12)
  402b53:	49 89 54 24 28       	mov    %rdx,0x28(%r12)
  402b58:	48 b8 69 6e 74 61 62 	movabs $0x20656c6261746e69,%rax
  402b5f:	6c 65 20 
  402b62:	48 ba 63 68 61 72 61 	movabs $0x6574636172616863,%rdx
  402b69:	63 74 65 
  402b6c:	49 89 44 24 30       	mov    %rax,0x30(%r12)
  402b71:	49 89 54 24 38       	mov    %rdx,0x38(%r12)
  402b76:	66 41 c7 44 24 40 72 	movw   $0x2e72,0x40(%r12)
  402b7d:	2e 
  402b7e:	41 c6 44 24 42 00    	movb   $0x0,0x42(%r12)
  402b84:	89 df                	mov    %ebx,%edi
  402b86:	e8 45 e5 ff ff       	callq  4010d0 <close@plt>
  402b8b:	b8 ff ff ff ff       	mov    $0xffffffff,%eax
  402b90:	e9 a1 fd ff ff       	jmpq   402936 <submitr+0x30f>
  402b95:	48 b8 45 72 72 6f 72 	movabs $0x43203a726f727245,%rax
  402b9c:	3a 20 43 
  402b9f:	48 ba 6c 69 65 6e 74 	movabs $0x6e7520746e65696c,%rdx
  402ba6:	20 75 6e 
  402ba9:	49 89 04 24          	mov    %rax,(%r12)
  402bad:	49 89 54 24 08       	mov    %rdx,0x8(%r12)
  402bb2:	48 b8 61 62 6c 65 20 	movabs $0x206f7420656c6261,%rax
  402bb9:	74 6f 20 
  402bbc:	48 ba 77 72 69 74 65 	movabs $0x6f74206574697277,%rdx
  402bc3:	20 74 6f 
  402bc6:	49 89 44 24 10       	mov    %rax,0x10(%r12)
  402bcb:	49 89 54 24 18       	mov    %rdx,0x18(%r12)
  402bd0:	48 b8 20 74 68 65 20 	movabs $0x7365722065687420,%rax
  402bd7:	72 65 73 
  402bda:	48 ba 75 6c 74 20 73 	movabs $0x7672657320746c75,%rdx
  402be1:	65 72 76 
  402be4:	49 89 44 24 20       	mov    %rax,0x20(%r12)
  402be9:	49 89 54 24 28       	mov    %rdx,0x28(%r12)
  402bee:	66 41 c7 44 24 30 65 	movw   $0x7265,0x30(%r12)
  402bf5:	72 
  402bf6:	41 c6 44 24 32 00    	movb   $0x0,0x32(%r12)
  402bfc:	89 df                	mov    %ebx,%edi
  402bfe:	e8 cd e4 ff ff       	callq  4010d0 <close@plt>
  402c03:	b8 ff ff ff ff       	mov    $0xffffffff,%eax
  402c08:	e9 29 fd ff ff       	jmpq   402936 <submitr+0x30f>
  402c0d:	48 b8 45 72 72 6f 72 	movabs $0x43203a726f727245,%rax
  402c14:	3a 20 43 
  402c17:	48 ba 6c 69 65 6e 74 	movabs $0x6e7520746e65696c,%rdx
  402c1e:	20 75 6e 
  402c21:	49 89 04 24          	mov    %rax,(%r12)
  402c25:	49 89 54 24 08       	mov    %rdx,0x8(%r12)
  402c2a:	48 b8 61 62 6c 65 20 	movabs $0x206f7420656c6261,%rax
  402c31:	74 6f 20 
  402c34:	48 ba 72 65 61 64 20 	movabs $0x7269662064616572,%rdx
  402c3b:	66 69 72 
  402c3e:	49 89 44 24 10       	mov    %rax,0x10(%r12)
  402c43:	49 89 54 24 18       	mov    %rdx,0x18(%r12)
  402c48:	48 b8 73 74 20 68 65 	movabs $0x6564616568207473,%rax
  402c4f:	61 64 65 
  402c52:	48 ba 72 20 66 72 6f 	movabs $0x72206d6f72662072,%rdx
  402c59:	6d 20 72 
  402c5c:	49 89 44 24 20       	mov    %rax,0x20(%r12)
  402c61:	49 89 54 24 28       	mov    %rdx,0x28(%r12)
  402c66:	48 b8 65 73 75 6c 74 	movabs $0x657320746c757365,%rax
  402c6d:	20 73 65 
  402c70:	49 89 44 24 30       	mov    %rax,0x30(%r12)
  402c75:	41 c7 44 24 38 72 76 	movl   $0x72657672,0x38(%r12)
  402c7c:	65 72 
  402c7e:	41 c6 44 24 3c 00    	movb   $0x0,0x3c(%r12)
  402c84:	89 df                	mov    %ebx,%edi
  402c86:	e8 45 e4 ff ff       	callq  4010d0 <close@plt>
  402c8b:	b8 ff ff ff ff       	mov    $0xffffffff,%eax
  402c90:	e9 a1 fc ff ff       	jmpq   402936 <submitr+0x30f>
  402c95:	ba 00 20 00 00       	mov    $0x2000,%edx
  402c9a:	48 8d b5 c0 7f ff ff 	lea    -0x8040(%rbp),%rsi
  402ca1:	48 8d bd b0 5f ff ff 	lea    -0xa050(%rbp),%rdi
  402ca8:	e8 c5 f7 ff ff       	callq  402472 <rio_readlineb>
  402cad:	48 85 c0             	test   %rax,%rax
  402cb0:	0f 8e 91 00 00 00    	jle    402d47 <submitr+0x720>
  402cb6:	44 8b 85 9c 5f ff ff 	mov    -0xa064(%rbp),%r8d
  402cbd:	41 81 f8 c8 00 00 00 	cmp    $0xc8,%r8d
  402cc4:	0f 85 0d 01 00 00    	jne    402dd7 <submitr+0x7b0>
  402cca:	48 8d b5 c0 7f ff ff 	lea    -0x8040(%rbp),%rsi
  402cd1:	4c 89 e7             	mov    %r12,%rdi
  402cd4:	e8 87 e3 ff ff       	callq  401060 <strcpy@plt>
  402cd9:	89 df                	mov    %ebx,%edi
  402cdb:	e8 f0 e3 ff ff       	callq  4010d0 <close@plt>
  402ce0:	bf 5d 47 40 00       	mov    $0x40475d,%edi
  402ce5:	b9 04 00 00 00       	mov    $0x4,%ecx
  402cea:	4c 89 e6             	mov    %r12,%rsi
  402ced:	f3 a6                	repz cmpsb %es:(%rdi),%ds:(%rsi)
  402cef:	0f 97 c0             	seta   %al
  402cf2:	1c 00                	sbb    $0x0,%al
  402cf4:	0f be c0             	movsbl %al,%eax
  402cf7:	85 c0                	test   %eax,%eax
  402cf9:	0f 84 37 fc ff ff    	je     402936 <submitr+0x30f>
  402cff:	bf 61 47 40 00       	mov    $0x404761,%edi
  402d04:	b9 05 00 00 00       	mov    $0x5,%ecx
  402d09:	4c 89 e6             	mov    %r12,%rsi
  402d0c:	f3 a6                	repz cmpsb %es:(%rdi),%ds:(%rsi)
  402d0e:	0f 97 c0             	seta   %al
  402d11:	1c 00                	sbb    $0x0,%al
  402d13:	0f be c0             	movsbl %al,%eax
  402d16:	85 c0                	test   %eax,%eax
  402d18:	0f 84 18 fc ff ff    	je     402936 <submitr+0x30f>
  402d1e:	bf 66 47 40 00       	mov    $0x404766,%edi
  402d23:	b9 03 00 00 00       	mov    $0x3,%ecx
  402d28:	4c 89 e6             	mov    %r12,%rsi
  402d2b:	f3 a6                	repz cmpsb %es:(%rdi),%ds:(%rsi)
  402d2d:	0f 97 c0             	seta   %al
  402d30:	1c 00                	sbb    $0x0,%al
  402d32:	0f be c0             	movsbl %al,%eax
  402d35:	85 c0                	test   %eax,%eax
  402d37:	0f 84 f9 fb ff ff    	je     402936 <submitr+0x30f>
  402d3d:	b8 ff ff ff ff       	mov    $0xffffffff,%eax
  402d42:	e9 ef fb ff ff       	jmpq   402936 <submitr+0x30f>
  402d47:	48 b8 45 72 72 6f 72 	movabs $0x43203a726f727245,%rax
  402d4e:	3a 20 43 
  402d51:	48 ba 6c 69 65 6e 74 	movabs $0x6e7520746e65696c,%rdx
  402d58:	20 75 6e 
  402d5b:	49 89 04 24          	mov    %rax,(%r12)
  402d5f:	49 89 54 24 08       	mov    %rdx,0x8(%r12)
  402d64:	48 b8 61 62 6c 65 20 	movabs $0x206f7420656c6261,%rax
  402d6b:	74 6f 20 
  402d6e:	48 ba 72 65 61 64 20 	movabs $0x6174732064616572,%rdx
  402d75:	73 74 61 
  402d78:	49 89 44 24 10       	mov    %rax,0x10(%r12)
  402d7d:	49 89 54 24 18       	mov    %rdx,0x18(%r12)
  402d82:	48 b8 74 75 73 20 6d 	movabs $0x7373656d20737574,%rax
  402d89:	65 73 73 
  402d8c:	48 ba 61 67 65 20 66 	movabs $0x6d6f726620656761,%rdx
  402d93:	72 6f 6d 
  402d96:	49 89 44 24 20       	mov    %rax,0x20(%r12)
  402d9b:	49 89 54 24 28       	mov    %rdx,0x28(%r12)
  402da0:	48 b8 20 72 65 73 75 	movabs $0x20746c7573657220,%rax
  402da7:	6c 74 20 
  402daa:	49 89 44 24 30       	mov    %rax,0x30(%r12)
  402daf:	41 c7 44 24 38 73 65 	movl   $0x76726573,0x38(%r12)
  402db6:	72 76 
  402db8:	66 41 c7 44 24 3c 65 	movw   $0x7265,0x3c(%r12)
  402dbf:	72 
  402dc0:	41 c6 44 24 3e 00    	movb   $0x0,0x3e(%r12)
  402dc6:	89 df                	mov    %ebx,%edi
  402dc8:	e8 03 e3 ff ff       	callq  4010d0 <close@plt>
  402dcd:	b8 ff ff ff ff       	mov    $0xffffffff,%eax
  402dd2:	e9 5f fb ff ff       	jmpq   402936 <submitr+0x30f>
  402dd7:	4c 8d 8d c0 df ff ff 	lea    -0x2040(%rbp),%r9
  402dde:	b9 18 47 40 00       	mov    $0x404718,%ecx
  402de3:	48 c7 c2 ff ff ff ff 	mov    $0xffffffffffffffff,%rdx
  402dea:	be 01 00 00 00       	mov    $0x1,%esi
  402def:	4c 89 e7             	mov    %r12,%rdi
  402df2:	b8 00 00 00 00       	mov    $0x0,%eax
  402df7:	e8 04 e4 ff ff       	callq  401200 <__sprintf_chk@plt>
  402dfc:	89 df                	mov    %ebx,%edi
  402dfe:	e8 cd e2 ff ff       	callq  4010d0 <close@plt>
  402e03:	b8 ff ff ff ff       	mov    $0xffffffff,%eax
  402e08:	e9 29 fb ff ff       	jmpq   402936 <submitr+0x30f>
  402e0d:	e8 7e e2 ff ff       	callq  401090 <__stack_chk_fail@plt>

0000000000402e12 <init_timeout>:
  402e12:	85 ff                	test   %edi,%edi
  402e14:	74 26                	je     402e3c <init_timeout+0x2a>
  402e16:	53                   	push   %rbx
  402e17:	89 fb                	mov    %edi,%ebx
  402e19:	85 ff                	test   %edi,%edi
  402e1b:	78 18                	js     402e35 <init_timeout+0x23>
  402e1d:	be 5b 23 40 00       	mov    $0x40235b,%esi
  402e22:	bf 0e 00 00 00       	mov    $0xe,%edi
  402e27:	e8 c4 e2 ff ff       	callq  4010f0 <signal@plt>
  402e2c:	89 df                	mov    %ebx,%edi
  402e2e:	e8 8d e2 ff ff       	callq  4010c0 <alarm@plt>
  402e33:	5b                   	pop    %rbx
  402e34:	c3                   	retq   
  402e35:	bb 00 00 00 00       	mov    $0x0,%ebx
  402e3a:	eb e1                	jmp    402e1d <init_timeout+0xb>
  402e3c:	f3 c3                	repz retq 

0000000000402e3e <init_driver>:
  402e3e:	4c 8d 54 24 08       	lea    0x8(%rsp),%r10
  402e43:	48 83 e4 f0          	and    $0xfffffffffffffff0,%rsp
  402e47:	41 ff 72 f8          	pushq  -0x8(%r10)
  402e4b:	55                   	push   %rbp
  402e4c:	48 89 e5             	mov    %rsp,%rbp
  402e4f:	41 54                	push   %r12
  402e51:	41 52                	push   %r10
  402e53:	53                   	push   %rbx
  402e54:	48 83 ec 28          	sub    $0x28,%rsp
  402e58:	49 89 fc             	mov    %rdi,%r12
  402e5b:	64 48 8b 04 25 28 00 	mov    %fs:0x28,%rax
  402e62:	00 00 
  402e64:	48 89 45 d8          	mov    %rax,-0x28(%rbp)
  402e68:	31 c0                	xor    %eax,%eax
  402e6a:	be 01 00 00 00       	mov    $0x1,%esi
  402e6f:	bf 0d 00 00 00       	mov    $0xd,%edi
  402e74:	e8 77 e2 ff ff       	callq  4010f0 <signal@plt>
  402e79:	be 01 00 00 00       	mov    $0x1,%esi
  402e7e:	bf 1d 00 00 00       	mov    $0x1d,%edi
  402e83:	e8 68 e2 ff ff       	callq  4010f0 <signal@plt>
  402e88:	be 01 00 00 00       	mov    $0x1,%esi
  402e8d:	bf 1d 00 00 00       	mov    $0x1d,%edi
  402e92:	e8 59 e2 ff ff       	callq  4010f0 <signal@plt>
  402e97:	ba 00 00 00 00       	mov    $0x0,%edx
  402e9c:	be 01 00 00 00       	mov    $0x1,%esi
  402ea1:	bf 02 00 00 00       	mov    $0x2,%edi
  402ea6:	e8 65 e3 ff ff       	callq  401210 <socket@plt>
  402eab:	85 c0                	test   %eax,%eax
  402ead:	0f 88 a6 00 00 00    	js     402f59 <init_driver+0x11b>
  402eb3:	89 c3                	mov    %eax,%ebx
  402eb5:	bf 69 47 40 00       	mov    $0x404769,%edi
  402eba:	e8 41 e2 ff ff       	callq  401100 <gethostbyname@plt>
  402ebf:	48 85 c0             	test   %rax,%rax
  402ec2:	0f 84 e4 00 00 00    	je     402fac <init_driver+0x16e>
  402ec8:	48 8d 4d c0          	lea    -0x40(%rbp),%rcx
  402ecc:	48 c7 45 c2 00 00 00 	movq   $0x0,-0x3e(%rbp)
  402ed3:	00 
  402ed4:	c7 45 ca 00 00 00 00 	movl   $0x0,-0x36(%rbp)
  402edb:	66 c7 45 ce 00 00    	movw   $0x0,-0x32(%rbp)
  402ee1:	66 c7 45 c0 02 00    	movw   $0x2,-0x40(%rbp)
  402ee7:	48 63 50 14          	movslq 0x14(%rax),%rdx
  402eeb:	48 8b 40 18          	mov    0x18(%rax),%rax
  402eef:	48 8b 30             	mov    (%rax),%rsi
  402ef2:	48 8d 79 04          	lea    0x4(%rcx),%rdi
  402ef6:	b9 0c 00 00 00       	mov    $0xc,%ecx
  402efb:	e8 10 e2 ff ff       	callq  401110 <__memmove_chk@plt>
  402f00:	66 c7 45 c2 3c 9a    	movw   $0x9a3c,-0x3e(%rbp)
  402f06:	ba 10 00 00 00       	mov    $0x10,%edx
  402f0b:	48 8d 75 c0          	lea    -0x40(%rbp),%rsi
  402f0f:	89 df                	mov    %ebx,%edi
  402f11:	e8 ba e2 ff ff       	callq  4011d0 <connect@plt>
  402f16:	85 c0                	test   %eax,%eax
  402f18:	0f 88 00 01 00 00    	js     40301e <init_driver+0x1e0>
  402f1e:	89 df                	mov    %ebx,%edi
  402f20:	e8 ab e1 ff ff       	callq  4010d0 <close@plt>
  402f25:	66 41 c7 04 24 4f 4b 	movw   $0x4b4f,(%r12)
  402f2c:	41 c6 44 24 02 00    	movb   $0x0,0x2(%r12)
  402f32:	b8 00 00 00 00       	mov    $0x0,%eax
  402f37:	48 8b 4d d8          	mov    -0x28(%rbp),%rcx
  402f3b:	64 48 33 0c 25 28 00 	xor    %fs:0x28,%rcx
  402f42:	00 00 
  402f44:	0f 85 2e 01 00 00    	jne    403078 <init_driver+0x23a>
  402f4a:	48 83 c4 28          	add    $0x28,%rsp
  402f4e:	5b                   	pop    %rbx
  402f4f:	41 5a                	pop    %r10
  402f51:	41 5c                	pop    %r12
  402f53:	5d                   	pop    %rbp
  402f54:	49 8d 62 f8          	lea    -0x8(%r10),%rsp
  402f58:	c3                   	retq   
  402f59:	48 b8 45 72 72 6f 72 	movabs $0x43203a726f727245,%rax
  402f60:	3a 20 43 
  402f63:	48 ba 6c 69 65 6e 74 	movabs $0x6e7520746e65696c,%rdx
  402f6a:	20 75 6e 
  402f6d:	49 89 04 24          	mov    %rax,(%r12)
  402f71:	49 89 54 24 08       	mov    %rdx,0x8(%r12)
  402f76:	48 b8 61 62 6c 65 20 	movabs $0x206f7420656c6261,%rax
  402f7d:	74 6f 20 
  402f80:	48 ba 63 72 65 61 74 	movabs $0x7320657461657263,%rdx
  402f87:	65 20 73 
  402f8a:	49 89 44 24 10       	mov    %rax,0x10(%r12)
  402f8f:	49 89 54 24 18       	mov    %rdx,0x18(%r12)
  402f94:	41 c7 44 24 20 6f 63 	movl   $0x656b636f,0x20(%r12)
  402f9b:	6b 65 
  402f9d:	66 41 c7 44 24 24 74 	movw   $0x74,0x24(%r12)
  402fa4:	00 
  402fa5:	b8 ff ff ff ff       	mov    $0xffffffff,%eax
  402faa:	eb 8b                	jmp    402f37 <init_driver+0xf9>
  402fac:	48 b8 45 72 72 6f 72 	movabs $0x44203a726f727245,%rax
  402fb3:	3a 20 44 
  402fb6:	48 ba 4e 53 20 69 73 	movabs $0x6e7520736920534e,%rdx
  402fbd:	20 75 6e 
  402fc0:	49 89 04 24          	mov    %rax,(%r12)
  402fc4:	49 89 54 24 08       	mov    %rdx,0x8(%r12)
  402fc9:	48 b8 61 62 6c 65 20 	movabs $0x206f7420656c6261,%rax
  402fd0:	74 6f 20 
  402fd3:	48 ba 72 65 73 6f 6c 	movabs $0x2065766c6f736572,%rdx
  402fda:	76 65 20 
  402fdd:	49 89 44 24 10       	mov    %rax,0x10(%r12)
  402fe2:	49 89 54 24 18       	mov    %rdx,0x18(%r12)
  402fe7:	48 b8 73 65 72 76 65 	movabs $0x6120726576726573,%rax
  402fee:	72 20 61 
  402ff1:	49 89 44 24 20       	mov    %rax,0x20(%r12)
  402ff6:	41 c7 44 24 28 64 64 	movl   $0x65726464,0x28(%r12)
  402ffd:	72 65 
  402fff:	66 41 c7 44 24 2c 73 	movw   $0x7373,0x2c(%r12)
  403006:	73 
  403007:	41 c6 44 24 2e 00    	movb   $0x0,0x2e(%r12)
  40300d:	89 df                	mov    %ebx,%edi
  40300f:	e8 bc e0 ff ff       	callq  4010d0 <close@plt>
  403014:	b8 ff ff ff ff       	mov    $0xffffffff,%eax
  403019:	e9 19 ff ff ff       	jmpq   402f37 <init_driver+0xf9>
  40301e:	48 b8 45 72 72 6f 72 	movabs $0x55203a726f727245,%rax
  403025:	3a 20 55 
  403028:	48 ba 6e 61 62 6c 65 	movabs $0x6f7420656c62616e,%rdx
  40302f:	20 74 6f 
  403032:	49 89 04 24          	mov    %rax,(%r12)
  403036:	49 89 54 24 08       	mov    %rdx,0x8(%r12)
  40303b:	48 b8 20 63 6f 6e 6e 	movabs $0x7463656e6e6f6320,%rax
  403042:	65 63 74 
  403045:	48 ba 20 74 6f 20 73 	movabs $0x76726573206f7420,%rdx
  40304c:	65 72 76 
  40304f:	49 89 44 24 10       	mov    %rax,0x10(%r12)
  403054:	49 89 54 24 18       	mov    %rdx,0x18(%r12)
  403059:	66 41 c7 44 24 20 65 	movw   $0x7265,0x20(%r12)
  403060:	72 
  403061:	41 c6 44 24 22 00    	movb   $0x0,0x22(%r12)
  403067:	89 df                	mov    %ebx,%edi
  403069:	e8 62 e0 ff ff       	callq  4010d0 <close@plt>
  40306e:	b8 ff ff ff ff       	mov    $0xffffffff,%eax
  403073:	e9 bf fe ff ff       	jmpq   402f37 <init_driver+0xf9>
  403078:	e8 13 e0 ff ff       	callq  401090 <__stack_chk_fail@plt>

000000000040307d <driver_post>:
  40307d:	53                   	push   %rbx
  40307e:	4c 89 cb             	mov    %r9,%rbx
  403081:	45 85 c0             	test   %r8d,%r8d
  403084:	75 18                	jne    40309e <driver_post+0x21>
  403086:	48 85 ff             	test   %rdi,%rdi
  403089:	74 05                	je     403090 <driver_post+0x13>
  40308b:	80 3f 00             	cmpb   $0x0,(%rdi)
  40308e:	75 35                	jne    4030c5 <driver_post+0x48>
  403090:	66 c7 03 4f 4b       	movw   $0x4b4f,(%rbx)
  403095:	c6 43 02 00          	movb   $0x0,0x2(%rbx)
  403099:	44 89 c0             	mov    %r8d,%eax
  40309c:	5b                   	pop    %rbx
  40309d:	c3                   	retq   
  40309e:	48 89 ca             	mov    %rcx,%rdx
  4030a1:	be 86 47 40 00       	mov    $0x404786,%esi
  4030a6:	bf 01 00 00 00       	mov    $0x1,%edi
  4030ab:	b8 00 00 00 00       	mov    $0x0,%eax
  4030b0:	e8 cb e0 ff ff       	callq  401180 <__printf_chk@plt>
  4030b5:	66 c7 03 4f 4b       	movw   $0x4b4f,(%rbx)
  4030ba:	c6 43 02 00          	movb   $0x0,0x2(%rbx)
  4030be:	b8 00 00 00 00       	mov    $0x0,%eax
  4030c3:	eb d7                	jmp    40309c <driver_post+0x1f>
  4030c5:	48 83 ec 08          	sub    $0x8,%rsp
  4030c9:	41 51                	push   %r9
  4030cb:	49 89 c9             	mov    %rcx,%r9
  4030ce:	49 89 d0             	mov    %rdx,%r8
  4030d1:	48 89 f9             	mov    %rdi,%rcx
  4030d4:	48 89 f2             	mov    %rsi,%rdx
  4030d7:	be 9a 3c 00 00       	mov    $0x3c9a,%esi
  4030dc:	bf 69 47 40 00       	mov    $0x404769,%edi
  4030e1:	e8 41 f5 ff ff       	callq  402627 <submitr>
  4030e6:	48 83 c4 10          	add    $0x10,%rsp
  4030ea:	eb b0                	jmp    40309c <driver_post+0x1f>

00000000004030ec <check>:
  4030ec:	89 f8                	mov    %edi,%eax
  4030ee:	c1 e8 1c             	shr    $0x1c,%eax
  4030f1:	85 c0                	test   %eax,%eax
  4030f3:	74 1d                	je     403112 <check+0x26>
  4030f5:	b9 00 00 00 00       	mov    $0x0,%ecx
  4030fa:	83 f9 1f             	cmp    $0x1f,%ecx
  4030fd:	7f 0d                	jg     40310c <check+0x20>
  4030ff:	89 f8                	mov    %edi,%eax
  403101:	d3 e8                	shr    %cl,%eax
  403103:	3c 0a                	cmp    $0xa,%al
  403105:	74 11                	je     403118 <check+0x2c>
  403107:	83 c1 08             	add    $0x8,%ecx
  40310a:	eb ee                	jmp    4030fa <check+0xe>
  40310c:	b8 01 00 00 00       	mov    $0x1,%eax
  403111:	c3                   	retq   
  403112:	b8 00 00 00 00       	mov    $0x0,%eax
  403117:	c3                   	retq   
  403118:	b8 00 00 00 00       	mov    $0x0,%eax
  40311d:	c3                   	retq   

000000000040311e <gencookie>:
  40311e:	53                   	push   %rbx
  40311f:	83 c7 01             	add    $0x1,%edi
  403122:	e8 19 df ff ff       	callq  401040 <srandom@plt>
  403127:	e8 24 e0 ff ff       	callq  401150 <random@plt>
  40312c:	89 c3                	mov    %eax,%ebx
  40312e:	89 c7                	mov    %eax,%edi
  403130:	e8 b7 ff ff ff       	callq  4030ec <check>
  403135:	85 c0                	test   %eax,%eax
  403137:	74 ee                	je     403127 <gencookie+0x9>
  403139:	89 d8                	mov    %ebx,%eax
  40313b:	5b                   	pop    %rbx
  40313c:	c3                   	retq   
  40313d:	0f 1f 00             	nopl   (%rax)

0000000000403140 <__libc_csu_init>:
  403140:	f3 0f 1e fa          	endbr64 
  403144:	41 57                	push   %r15
  403146:	4c 8d 3d c3 3c 00 00 	lea    0x3cc3(%rip),%r15        # 406e10 <__frame_dummy_init_array_entry>
  40314d:	41 56                	push   %r14
  40314f:	49 89 d6             	mov    %rdx,%r14
  403152:	41 55                	push   %r13
  403154:	49 89 f5             	mov    %rsi,%r13
  403157:	41 54                	push   %r12
  403159:	41 89 fc             	mov    %edi,%r12d
  40315c:	55                   	push   %rbp
  40315d:	48 8d 2d b4 3c 00 00 	lea    0x3cb4(%rip),%rbp        # 406e18 <__init_array_end>
  403164:	53                   	push   %rbx
  403165:	4c 29 fd             	sub    %r15,%rbp
  403168:	48 83 ec 08          	sub    $0x8,%rsp
  40316c:	e8 8f de ff ff       	callq  401000 <_init>
  403171:	48 c1 fd 03          	sar    $0x3,%rbp
  403175:	74 1f                	je     403196 <__libc_csu_init+0x56>
  403177:	31 db                	xor    %ebx,%ebx
  403179:	0f 1f 80 00 00 00 00 	nopl   0x0(%rax)
  403180:	4c 89 f2             	mov    %r14,%rdx
  403183:	4c 89 ee             	mov    %r13,%rsi
  403186:	44 89 e7             	mov    %r12d,%edi
  403189:	41 ff 14 df          	callq  *(%r15,%rbx,8)
  40318d:	48 83 c3 01          	add    $0x1,%rbx
  403191:	48 39 dd             	cmp    %rbx,%rbp
  403194:	75 ea                	jne    403180 <__libc_csu_init+0x40>
  403196:	48 83 c4 08          	add    $0x8,%rsp
  40319a:	5b                   	pop    %rbx
  40319b:	5d                   	pop    %rbp
  40319c:	41 5c                	pop    %r12
  40319e:	41 5d                	pop    %r13
  4031a0:	41 5e                	pop    %r14
  4031a2:	41 5f                	pop    %r15
  4031a4:	c3                   	retq   
  4031a5:	66 66 2e 0f 1f 84 00 	data16 nopw %cs:0x0(%rax,%rax,1)
  4031ac:	00 00 00 00 

00000000004031b0 <__libc_csu_fini>:
  4031b0:	f3 0f 1e fa          	endbr64 
  4031b4:	c3                   	retq   

Disassembly of section .fini:

00000000004031b8 <_fini>:
  4031b8:	f3 0f 1e fa          	endbr64 
  4031bc:	48 83 ec 08          	sub    $0x8,%rsp
  4031c0:	48 83 c4 08          	add    $0x8,%rsp
  4031c4:	c3                   	retq   
