
rtarget:     file format elf64-x86-64


Disassembly of section .init:

0000000000401000 <_init>:
  401000:	f3 0f 1e fa          	endbr64 
  401004:	48 83 ec 08          	sub    $0x8,%rsp
  401008:	48 8b 05 e9 5f 00 00 	mov    0x5fe9(%rip),%rax        # 406ff8 <__gmon_start__>
  40100f:	48 85 c0             	test   %rax,%rax
  401012:	74 02                	je     401016 <_init+0x16>
  401014:	ff d0                	callq  *%rax
  401016:	48 83 c4 08          	add    $0x8,%rsp
  40101a:	c3                   	retq   

Disassembly of section .plt:

0000000000401020 <.plt>:
  401020:	ff 35 e2 5f 00 00    	pushq  0x5fe2(%rip)        # 407008 <_GLOBAL_OFFSET_TABLE_+0x8>
  401026:	ff 25 e4 5f 00 00    	jmpq   *0x5fe4(%rip)        # 407010 <_GLOBAL_OFFSET_TABLE_+0x10>
  40102c:	0f 1f 40 00          	nopl   0x0(%rax)

0000000000401030 <__errno_location@plt>:
  401030:	ff 25 e2 5f 00 00    	jmpq   *0x5fe2(%rip)        # 407018 <__errno_location@GLIBC_2.2.5>
  401036:	68 00 00 00 00       	pushq  $0x0
  40103b:	e9 e0 ff ff ff       	jmpq   401020 <.plt>

0000000000401040 <srandom@plt>:
  401040:	ff 25 da 5f 00 00    	jmpq   *0x5fda(%rip)        # 407020 <srandom@GLIBC_2.2.5>
  401046:	68 01 00 00 00       	pushq  $0x1
  40104b:	e9 d0 ff ff ff       	jmpq   401020 <.plt>

0000000000401050 <strncmp@plt>:
  401050:	ff 25 d2 5f 00 00    	jmpq   *0x5fd2(%rip)        # 407028 <strncmp@GLIBC_2.2.5>
  401056:	68 02 00 00 00       	pushq  $0x2
  40105b:	e9 c0 ff ff ff       	jmpq   401020 <.plt>

0000000000401060 <strcpy@plt>:
  401060:	ff 25 ca 5f 00 00    	jmpq   *0x5fca(%rip)        # 407030 <strcpy@GLIBC_2.2.5>
  401066:	68 03 00 00 00       	pushq  $0x3
  40106b:	e9 b0 ff ff ff       	jmpq   401020 <.plt>

0000000000401070 <puts@plt>:
  401070:	ff 25 c2 5f 00 00    	jmpq   *0x5fc2(%rip)        # 407038 <puts@GLIBC_2.2.5>
  401076:	68 04 00 00 00       	pushq  $0x4
  40107b:	e9 a0 ff ff ff       	jmpq   401020 <.plt>

0000000000401080 <write@plt>:
  401080:	ff 25 ba 5f 00 00    	jmpq   *0x5fba(%rip)        # 407040 <write@GLIBC_2.2.5>
  401086:	68 05 00 00 00       	pushq  $0x5
  40108b:	e9 90 ff ff ff       	jmpq   401020 <.plt>

0000000000401090 <__stack_chk_fail@plt>:
  401090:	ff 25 b2 5f 00 00    	jmpq   *0x5fb2(%rip)        # 407048 <__stack_chk_fail@GLIBC_2.4>
  401096:	68 06 00 00 00       	pushq  $0x6
  40109b:	e9 80 ff ff ff       	jmpq   401020 <.plt>

00000000004010a0 <mmap@plt>:
  4010a0:	ff 25 aa 5f 00 00    	jmpq   *0x5faa(%rip)        # 407050 <mmap@GLIBC_2.2.5>
  4010a6:	68 07 00 00 00       	pushq  $0x7
  4010ab:	e9 70 ff ff ff       	jmpq   401020 <.plt>

00000000004010b0 <memset@plt>:
  4010b0:	ff 25 a2 5f 00 00    	jmpq   *0x5fa2(%rip)        # 407058 <memset@GLIBC_2.2.5>
  4010b6:	68 08 00 00 00       	pushq  $0x8
  4010bb:	e9 60 ff ff ff       	jmpq   401020 <.plt>

00000000004010c0 <alarm@plt>:
  4010c0:	ff 25 9a 5f 00 00    	jmpq   *0x5f9a(%rip)        # 407060 <alarm@GLIBC_2.2.5>
  4010c6:	68 09 00 00 00       	pushq  $0x9
  4010cb:	e9 50 ff ff ff       	jmpq   401020 <.plt>

00000000004010d0 <close@plt>:
  4010d0:	ff 25 92 5f 00 00    	jmpq   *0x5f92(%rip)        # 407068 <close@GLIBC_2.2.5>
  4010d6:	68 0a 00 00 00       	pushq  $0xa
  4010db:	e9 40 ff ff ff       	jmpq   401020 <.plt>

00000000004010e0 <read@plt>:
  4010e0:	ff 25 8a 5f 00 00    	jmpq   *0x5f8a(%rip)        # 407070 <read@GLIBC_2.2.5>
  4010e6:	68 0b 00 00 00       	pushq  $0xb
  4010eb:	e9 30 ff ff ff       	jmpq   401020 <.plt>

00000000004010f0 <signal@plt>:
  4010f0:	ff 25 82 5f 00 00    	jmpq   *0x5f82(%rip)        # 407078 <signal@GLIBC_2.2.5>
  4010f6:	68 0c 00 00 00       	pushq  $0xc
  4010fb:	e9 20 ff ff ff       	jmpq   401020 <.plt>

0000000000401100 <gethostbyname@plt>:
  401100:	ff 25 7a 5f 00 00    	jmpq   *0x5f7a(%rip)        # 407080 <gethostbyname@GLIBC_2.2.5>
  401106:	68 0d 00 00 00       	pushq  $0xd
  40110b:	e9 10 ff ff ff       	jmpq   401020 <.plt>

0000000000401110 <__memmove_chk@plt>:
  401110:	ff 25 72 5f 00 00    	jmpq   *0x5f72(%rip)        # 407088 <__memmove_chk@GLIBC_2.3.4>
  401116:	68 0e 00 00 00       	pushq  $0xe
  40111b:	e9 00 ff ff ff       	jmpq   401020 <.plt>

0000000000401120 <strtol@plt>:
  401120:	ff 25 6a 5f 00 00    	jmpq   *0x5f6a(%rip)        # 407090 <strtol@GLIBC_2.2.5>
  401126:	68 0f 00 00 00       	pushq  $0xf
  40112b:	e9 f0 fe ff ff       	jmpq   401020 <.plt>

0000000000401130 <memcpy@plt>:
  401130:	ff 25 62 5f 00 00    	jmpq   *0x5f62(%rip)        # 407098 <memcpy@GLIBC_2.14>
  401136:	68 10 00 00 00       	pushq  $0x10
  40113b:	e9 e0 fe ff ff       	jmpq   401020 <.plt>

0000000000401140 <time@plt>:
  401140:	ff 25 5a 5f 00 00    	jmpq   *0x5f5a(%rip)        # 4070a0 <time@GLIBC_2.2.5>
  401146:	68 11 00 00 00       	pushq  $0x11
  40114b:	e9 d0 fe ff ff       	jmpq   401020 <.plt>

0000000000401150 <random@plt>:
  401150:	ff 25 52 5f 00 00    	jmpq   *0x5f52(%rip)        # 4070a8 <random@GLIBC_2.2.5>
  401156:	68 12 00 00 00       	pushq  $0x12
  40115b:	e9 c0 fe ff ff       	jmpq   401020 <.plt>

0000000000401160 <__isoc99_sscanf@plt>:
  401160:	ff 25 4a 5f 00 00    	jmpq   *0x5f4a(%rip)        # 4070b0 <__isoc99_sscanf@GLIBC_2.7>
  401166:	68 13 00 00 00       	pushq  $0x13
  40116b:	e9 b0 fe ff ff       	jmpq   401020 <.plt>

0000000000401170 <munmap@plt>:
  401170:	ff 25 42 5f 00 00    	jmpq   *0x5f42(%rip)        # 4070b8 <munmap@GLIBC_2.2.5>
  401176:	68 14 00 00 00       	pushq  $0x14
  40117b:	e9 a0 fe ff ff       	jmpq   401020 <.plt>

0000000000401180 <__printf_chk@plt>:
  401180:	ff 25 3a 5f 00 00    	jmpq   *0x5f3a(%rip)        # 4070c0 <__printf_chk@GLIBC_2.3.4>
  401186:	68 15 00 00 00       	pushq  $0x15
  40118b:	e9 90 fe ff ff       	jmpq   401020 <.plt>

0000000000401190 <fopen@plt>:
  401190:	ff 25 32 5f 00 00    	jmpq   *0x5f32(%rip)        # 4070c8 <fopen@GLIBC_2.2.5>
  401196:	68 16 00 00 00       	pushq  $0x16
  40119b:	e9 80 fe ff ff       	jmpq   401020 <.plt>

00000000004011a0 <getopt@plt>:
  4011a0:	ff 25 2a 5f 00 00    	jmpq   *0x5f2a(%rip)        # 4070d0 <getopt@GLIBC_2.2.5>
  4011a6:	68 17 00 00 00       	pushq  $0x17
  4011ab:	e9 70 fe ff ff       	jmpq   401020 <.plt>

00000000004011b0 <strtoul@plt>:
  4011b0:	ff 25 22 5f 00 00    	jmpq   *0x5f22(%rip)        # 4070d8 <strtoul@GLIBC_2.2.5>
  4011b6:	68 18 00 00 00       	pushq  $0x18
  4011bb:	e9 60 fe ff ff       	jmpq   401020 <.plt>

00000000004011c0 <exit@plt>:
  4011c0:	ff 25 1a 5f 00 00    	jmpq   *0x5f1a(%rip)        # 4070e0 <exit@GLIBC_2.2.5>
  4011c6:	68 19 00 00 00       	pushq  $0x19
  4011cb:	e9 50 fe ff ff       	jmpq   401020 <.plt>

00000000004011d0 <connect@plt>:
  4011d0:	ff 25 12 5f 00 00    	jmpq   *0x5f12(%rip)        # 4070e8 <connect@GLIBC_2.2.5>
  4011d6:	68 1a 00 00 00       	pushq  $0x1a
  4011db:	e9 40 fe ff ff       	jmpq   401020 <.plt>

00000000004011e0 <__fprintf_chk@plt>:
  4011e0:	ff 25 0a 5f 00 00    	jmpq   *0x5f0a(%rip)        # 4070f0 <__fprintf_chk@GLIBC_2.3.4>
  4011e6:	68 1b 00 00 00       	pushq  $0x1b
  4011eb:	e9 30 fe ff ff       	jmpq   401020 <.plt>

00000000004011f0 <getc@plt>:
  4011f0:	ff 25 02 5f 00 00    	jmpq   *0x5f02(%rip)        # 4070f8 <getc@GLIBC_2.2.5>
  4011f6:	68 1c 00 00 00       	pushq  $0x1c
  4011fb:	e9 20 fe ff ff       	jmpq   401020 <.plt>

0000000000401200 <__sprintf_chk@plt>:
  401200:	ff 25 fa 5e 00 00    	jmpq   *0x5efa(%rip)        # 407100 <__sprintf_chk@GLIBC_2.3.4>
  401206:	68 1d 00 00 00       	pushq  $0x1d
  40120b:	e9 10 fe ff ff       	jmpq   401020 <.plt>

0000000000401210 <socket@plt>:
  401210:	ff 25 f2 5e 00 00    	jmpq   *0x5ef2(%rip)        # 407108 <socket@GLIBC_2.2.5>
  401216:	68 1e 00 00 00       	pushq  $0x1e
  40121b:	e9 00 fe ff ff       	jmpq   401020 <.plt>

Disassembly of section .text:

0000000000401220 <_start>:
  401220:	f3 0f 1e fa          	endbr64 
  401224:	31 ed                	xor    %ebp,%ebp
  401226:	49 89 d1             	mov    %rdx,%r9
  401229:	5e                   	pop    %rsi
  40122a:	48 89 e2             	mov    %rsp,%rdx
  40122d:	48 83 e4 f0          	and    $0xfffffffffffffff0,%rsp
  401231:	50                   	push   %rax
  401232:	54                   	push   %rsp
  401233:	49 c7 c0 d0 32 40 00 	mov    $0x4032d0,%r8
  40123a:	48 c7 c1 60 32 40 00 	mov    $0x403260,%rcx
  401241:	48 c7 c7 ab 14 40 00 	mov    $0x4014ab,%rdi
  401248:	ff 15 a2 5d 00 00    	callq  *0x5da2(%rip)        # 406ff0 <__libc_start_main@GLIBC_2.2.5>
  40124e:	f4                   	hlt    
  40124f:	90                   	nop

0000000000401250 <_dl_relocate_static_pie>:
  401250:	f3 0f 1e fa          	endbr64 
  401254:	c3                   	retq   
  401255:	66 2e 0f 1f 84 00 00 	nopw   %cs:0x0(%rax,%rax,1)
  40125c:	00 00 00 
  40125f:	90                   	nop

0000000000401260 <deregister_tm_clones>:
  401260:	55                   	push   %rbp
  401261:	b8 90 74 40 00       	mov    $0x407490,%eax
  401266:	48 3d 90 74 40 00    	cmp    $0x407490,%rax
  40126c:	48 89 e5             	mov    %rsp,%rbp
  40126f:	74 17                	je     401288 <deregister_tm_clones+0x28>
  401271:	b8 00 00 00 00       	mov    $0x0,%eax
  401276:	48 85 c0             	test   %rax,%rax
  401279:	74 0d                	je     401288 <deregister_tm_clones+0x28>
  40127b:	5d                   	pop    %rbp
  40127c:	bf 90 74 40 00       	mov    $0x407490,%edi
  401281:	ff e0                	jmpq   *%rax
  401283:	0f 1f 44 00 00       	nopl   0x0(%rax,%rax,1)
  401288:	5d                   	pop    %rbp
  401289:	c3                   	retq   
  40128a:	66 0f 1f 44 00 00    	nopw   0x0(%rax,%rax,1)

0000000000401290 <register_tm_clones>:
  401290:	be 90 74 40 00       	mov    $0x407490,%esi
  401295:	55                   	push   %rbp
  401296:	48 81 ee 90 74 40 00 	sub    $0x407490,%rsi
  40129d:	48 89 e5             	mov    %rsp,%rbp
  4012a0:	48 c1 fe 03          	sar    $0x3,%rsi
  4012a4:	48 89 f0             	mov    %rsi,%rax
  4012a7:	48 c1 e8 3f          	shr    $0x3f,%rax
  4012ab:	48 01 c6             	add    %rax,%rsi
  4012ae:	48 d1 fe             	sar    %rsi
  4012b1:	74 15                	je     4012c8 <register_tm_clones+0x38>
  4012b3:	b8 00 00 00 00       	mov    $0x0,%eax
  4012b8:	48 85 c0             	test   %rax,%rax
  4012bb:	74 0b                	je     4012c8 <register_tm_clones+0x38>
  4012bd:	5d                   	pop    %rbp
  4012be:	bf 90 74 40 00       	mov    $0x407490,%edi
  4012c3:	ff e0                	jmpq   *%rax
  4012c5:	0f 1f 00             	nopl   (%rax)
  4012c8:	5d                   	pop    %rbp
  4012c9:	c3                   	retq   
  4012ca:	66 0f 1f 44 00 00    	nopw   0x0(%rax,%rax,1)

00000000004012d0 <__do_global_dtors_aux>:
  4012d0:	80 3d f1 61 00 00 00 	cmpb   $0x0,0x61f1(%rip)        # 4074c8 <completed.7658>
  4012d7:	75 17                	jne    4012f0 <__do_global_dtors_aux+0x20>
  4012d9:	55                   	push   %rbp
  4012da:	48 89 e5             	mov    %rsp,%rbp
  4012dd:	e8 7e ff ff ff       	callq  401260 <deregister_tm_clones>
  4012e2:	c6 05 df 61 00 00 01 	movb   $0x1,0x61df(%rip)        # 4074c8 <completed.7658>
  4012e9:	5d                   	pop    %rbp
  4012ea:	c3                   	retq   
  4012eb:	0f 1f 44 00 00       	nopl   0x0(%rax,%rax,1)
  4012f0:	f3 c3                	repz retq 
  4012f2:	66 66 2e 0f 1f 84 00 	data16 nopw %cs:0x0(%rax,%rax,1)
  4012f9:	00 00 00 00 
  4012fd:	0f 1f 00             	nopl   (%rax)

0000000000401300 <frame_dummy>:
  401300:	55                   	push   %rbp
  401301:	48 89 e5             	mov    %rsp,%rbp
  401304:	5d                   	pop    %rbp
  401305:	eb 89                	jmp    401290 <register_tm_clones>

0000000000401307 <usage>:
  401307:	48 83 ec 08          	sub    $0x8,%rsp
  40130b:	48 89 fa             	mov    %rdi,%rdx
  40130e:	83 3d f3 61 00 00 00 	cmpl   $0x0,0x61f3(%rip)        # 407508 <is_checker>
  401315:	74 46                	je     40135d <usage+0x56>
  401317:	be 08 40 40 00       	mov    $0x404008,%esi
  40131c:	bf 01 00 00 00       	mov    $0x1,%edi
  401321:	b8 00 00 00 00       	mov    $0x0,%eax
  401326:	e8 55 fe ff ff       	callq  401180 <__printf_chk@plt>
  40132b:	bf 40 40 40 00       	mov    $0x404040,%edi
  401330:	e8 3b fd ff ff       	callq  401070 <puts@plt>
  401335:	bf 40 41 40 00       	mov    $0x404140,%edi
  40133a:	e8 31 fd ff ff       	callq  401070 <puts@plt>
  40133f:	bf 68 40 40 00       	mov    $0x404068,%edi
  401344:	e8 27 fd ff ff       	callq  401070 <puts@plt>
  401349:	bf 5a 41 40 00       	mov    $0x40415a,%edi
  40134e:	e8 1d fd ff ff       	callq  401070 <puts@plt>
  401353:	bf 00 00 00 00       	mov    $0x0,%edi
  401358:	e8 63 fe ff ff       	callq  4011c0 <exit@plt>
  40135d:	be 76 41 40 00       	mov    $0x404176,%esi
  401362:	bf 01 00 00 00       	mov    $0x1,%edi
  401367:	b8 00 00 00 00       	mov    $0x0,%eax
  40136c:	e8 0f fe ff ff       	callq  401180 <__printf_chk@plt>
  401371:	bf 90 40 40 00       	mov    $0x404090,%edi
  401376:	e8 f5 fc ff ff       	callq  401070 <puts@plt>
  40137b:	bf b8 40 40 00       	mov    $0x4040b8,%edi
  401380:	e8 eb fc ff ff       	callq  401070 <puts@plt>
  401385:	bf 94 41 40 00       	mov    $0x404194,%edi
  40138a:	e8 e1 fc ff ff       	callq  401070 <puts@plt>
  40138f:	eb c2                	jmp    401353 <usage+0x4c>

0000000000401391 <initialize_target>:
  401391:	4c 8d 54 24 08       	lea    0x8(%rsp),%r10
  401396:	48 83 e4 f0          	and    $0xfffffffffffffff0,%rsp
  40139a:	41 ff 72 f8          	pushq  -0x8(%r10)
  40139e:	55                   	push   %rbp
  40139f:	48 89 e5             	mov    %rsp,%rbp
  4013a2:	41 54                	push   %r12
  4013a4:	41 52                	push   %r10
  4013a6:	53                   	push   %rbx
  4013a7:	48 81 ec 18 20 00 00 	sub    $0x2018,%rsp
  4013ae:	41 89 f4             	mov    %esi,%r12d
  4013b1:	64 48 8b 04 25 28 00 	mov    %fs:0x28,%rax
  4013b8:	00 00 
  4013ba:	48 89 45 d8          	mov    %rax,-0x28(%rbp)
  4013be:	31 c0                	xor    %eax,%eax
  4013c0:	89 3d 32 61 00 00    	mov    %edi,0x6132(%rip)        # 4074f8 <check_level>
  4013c6:	8b 3d 7c 5d 00 00    	mov    0x5d7c(%rip),%edi        # 407148 <target_id>
  4013cc:	e8 6d 1e 00 00       	callq  40323e <gencookie>
  4013d1:	89 05 2d 61 00 00    	mov    %eax,0x612d(%rip)        # 407504 <cookie>
  4013d7:	89 c7                	mov    %eax,%edi
  4013d9:	e8 60 1e 00 00       	callq  40323e <gencookie>
  4013de:	89 05 1c 61 00 00    	mov    %eax,0x611c(%rip)        # 407500 <authkey>
  4013e4:	8b 05 5e 5d 00 00    	mov    0x5d5e(%rip),%eax        # 407148 <target_id>
  4013ea:	8d 78 01             	lea    0x1(%rax),%edi
  4013ed:	e8 4e fc ff ff       	callq  401040 <srandom@plt>
  4013f2:	e8 59 fd ff ff       	callq  401150 <random@plt>
  4013f7:	89 c7                	mov    %eax,%edi
  4013f9:	e8 79 02 00 00       	callq  401677 <scramble>
  4013fe:	89 c3                	mov    %eax,%ebx
  401400:	45 85 e4             	test   %r12d,%r12d
  401403:	75 54                	jne    401459 <initialize_target+0xc8>
  401405:	b8 00 00 00 00       	mov    $0x0,%eax
  40140a:	01 d8                	add    %ebx,%eax
  40140c:	0f b7 c0             	movzwl %ax,%eax
  40140f:	8d 04 c5 00 01 00 00 	lea    0x100(,%rax,8),%eax
  401416:	89 c0                	mov    %eax,%eax
  401418:	48 89 05 61 60 00 00 	mov    %rax,0x6061(%rip)        # 407480 <buf_offset>
  40141f:	c6 05 02 6d 00 00 72 	movb   $0x72,0x6d02(%rip)        # 408128 <target_prefix>
  401426:	83 3d 5b 60 00 00 00 	cmpl   $0x0,0x605b(%rip)        # 407488 <notify>
  40142d:	74 09                	je     401438 <initialize_target+0xa7>
  40142f:	83 3d d2 60 00 00 00 	cmpl   $0x0,0x60d2(%rip)        # 407508 <is_checker>
  401436:	74 39                	je     401471 <initialize_target+0xe0>
  401438:	48 8b 45 d8          	mov    -0x28(%rbp),%rax
  40143c:	64 48 33 04 25 28 00 	xor    %fs:0x28,%rax
  401443:	00 00 
  401445:	75 5f                	jne    4014a6 <initialize_target+0x115>
  401447:	48 81 c4 18 20 00 00 	add    $0x2018,%rsp
  40144e:	5b                   	pop    %rbx
  40144f:	41 5a                	pop    %r10
  401451:	41 5c                	pop    %r12
  401453:	5d                   	pop    %rbp
  401454:	49 8d 62 f8          	lea    -0x8(%r10),%rsp
  401458:	c3                   	retq   
  401459:	bf 00 00 00 00       	mov    $0x0,%edi
  40145e:	e8 dd fc ff ff       	callq  401140 <time@plt>
  401463:	89 c7                	mov    %eax,%edi
  401465:	e8 d6 fb ff ff       	callq  401040 <srandom@plt>
  40146a:	e8 e1 fc ff ff       	callq  401150 <random@plt>
  40146f:	eb 99                	jmp    40140a <initialize_target+0x79>
  401471:	48 8d bd d0 df ff ff 	lea    -0x2030(%rbp),%rdi
  401478:	e8 e1 1a 00 00       	callq  402f5e <init_driver>
  40147d:	85 c0                	test   %eax,%eax
  40147f:	79 b7                	jns    401438 <initialize_target+0xa7>
  401481:	48 8d 95 d0 df ff ff 	lea    -0x2030(%rbp),%rdx
  401488:	be e8 40 40 00       	mov    $0x4040e8,%esi
  40148d:	bf 01 00 00 00       	mov    $0x1,%edi
  401492:	b8 00 00 00 00       	mov    $0x0,%eax
  401497:	e8 e4 fc ff ff       	callq  401180 <__printf_chk@plt>
  40149c:	bf 08 00 00 00       	mov    $0x8,%edi
  4014a1:	e8 1a fd ff ff       	callq  4011c0 <exit@plt>
  4014a6:	e8 e5 fb ff ff       	callq  401090 <__stack_chk_fail@plt>

00000000004014ab <main>:
  4014ab:	41 56                	push   %r14
  4014ad:	41 55                	push   %r13
  4014af:	41 54                	push   %r12
  4014b1:	55                   	push   %rbp
  4014b2:	53                   	push   %rbx
  4014b3:	41 89 fc             	mov    %edi,%r12d
  4014b6:	48 89 f3             	mov    %rsi,%rbx
  4014b9:	be 19 22 40 00       	mov    $0x402219,%esi
  4014be:	bf 0b 00 00 00       	mov    $0xb,%edi
  4014c3:	e8 28 fc ff ff       	callq  4010f0 <signal@plt>
  4014c8:	be cb 21 40 00       	mov    $0x4021cb,%esi
  4014cd:	bf 07 00 00 00       	mov    $0x7,%edi
  4014d2:	e8 19 fc ff ff       	callq  4010f0 <signal@plt>
  4014d7:	be 67 22 40 00       	mov    $0x402267,%esi
  4014dc:	bf 04 00 00 00       	mov    $0x4,%edi
  4014e1:	e8 0a fc ff ff       	callq  4010f0 <signal@plt>
  4014e6:	83 3d 1b 60 00 00 00 	cmpl   $0x0,0x601b(%rip)        # 407508 <is_checker>
  4014ed:	75 24                	jne    401513 <main+0x68>
  4014ef:	bd ad 41 40 00       	mov    $0x4041ad,%ebp
  4014f4:	48 8b 05 a5 5f 00 00 	mov    0x5fa5(%rip),%rax        # 4074a0 <stdin@@GLIBC_2.2.5>
  4014fb:	48 89 05 ee 5f 00 00 	mov    %rax,0x5fee(%rip)        # 4074f0 <infile>
  401502:	41 bd 00 00 00 00    	mov    $0x0,%r13d
  401508:	41 be 00 00 00 00    	mov    $0x0,%r14d
  40150e:	e9 85 00 00 00       	jmpq   401598 <main+0xed>
  401513:	be b5 22 40 00       	mov    $0x4022b5,%esi
  401518:	bf 0e 00 00 00       	mov    $0xe,%edi
  40151d:	e8 ce fb ff ff       	callq  4010f0 <signal@plt>
  401522:	bf 05 00 00 00       	mov    $0x5,%edi
  401527:	e8 94 fb ff ff       	callq  4010c0 <alarm@plt>
  40152c:	bd b2 41 40 00       	mov    $0x4041b2,%ebp
  401531:	eb c1                	jmp    4014f4 <main+0x49>
  401533:	48 8b 3b             	mov    (%rbx),%rdi
  401536:	e8 cc fd ff ff       	callq  401307 <usage>
  40153b:	be 5d 44 40 00       	mov    $0x40445d,%esi
  401540:	48 8b 3d 61 5f 00 00 	mov    0x5f61(%rip),%rdi        # 4074a8 <optarg@@GLIBC_2.2.5>
  401547:	e8 44 fc ff ff       	callq  401190 <fopen@plt>
  40154c:	48 89 05 9d 5f 00 00 	mov    %rax,0x5f9d(%rip)        # 4074f0 <infile>
  401553:	48 85 c0             	test   %rax,%rax
  401556:	75 40                	jne    401598 <main+0xed>
  401558:	48 8b 0d 49 5f 00 00 	mov    0x5f49(%rip),%rcx        # 4074a8 <optarg@@GLIBC_2.2.5>
  40155f:	ba ba 41 40 00       	mov    $0x4041ba,%edx
  401564:	be 01 00 00 00       	mov    $0x1,%esi
  401569:	48 8b 3d 50 5f 00 00 	mov    0x5f50(%rip),%rdi        # 4074c0 <stderr@@GLIBC_2.2.5>
  401570:	e8 6b fc ff ff       	callq  4011e0 <__fprintf_chk@plt>
  401575:	b8 01 00 00 00       	mov    $0x1,%eax
  40157a:	e9 cc 00 00 00       	jmpq   40164b <main+0x1a0>
  40157f:	ba 10 00 00 00       	mov    $0x10,%edx
  401584:	be 00 00 00 00       	mov    $0x0,%esi
  401589:	48 8b 3d 18 5f 00 00 	mov    0x5f18(%rip),%rdi        # 4074a8 <optarg@@GLIBC_2.2.5>
  401590:	e8 1b fc ff ff       	callq  4011b0 <strtoul@plt>
  401595:	41 89 c6             	mov    %eax,%r14d
  401598:	48 89 ea             	mov    %rbp,%rdx
  40159b:	48 89 de             	mov    %rbx,%rsi
  40159e:	44 89 e7             	mov    %r12d,%edi
  4015a1:	e8 fa fb ff ff       	callq  4011a0 <getopt@plt>
  4015a6:	3c ff                	cmp    $0xff,%al
  4015a8:	74 57                	je     401601 <main+0x156>
  4015aa:	0f be d0             	movsbl %al,%edx
  4015ad:	83 e8 61             	sub    $0x61,%eax
  4015b0:	3c 10                	cmp    $0x10,%al
  4015b2:	77 31                	ja     4015e5 <main+0x13a>
  4015b4:	0f b6 c0             	movzbl %al,%eax
  4015b7:	ff 24 c5 f8 41 40 00 	jmpq   *0x4041f8(,%rax,8)
  4015be:	ba 0a 00 00 00       	mov    $0xa,%edx
  4015c3:	be 00 00 00 00       	mov    $0x0,%esi
  4015c8:	48 8b 3d d9 5e 00 00 	mov    0x5ed9(%rip),%rdi        # 4074a8 <optarg@@GLIBC_2.2.5>
  4015cf:	e8 4c fb ff ff       	callq  401120 <strtol@plt>
  4015d4:	41 89 c5             	mov    %eax,%r13d
  4015d7:	eb bf                	jmp    401598 <main+0xed>
  4015d9:	c7 05 a5 5e 00 00 00 	movl   $0x0,0x5ea5(%rip)        # 407488 <notify>
  4015e0:	00 00 00 
  4015e3:	eb b3                	jmp    401598 <main+0xed>
  4015e5:	be d7 41 40 00       	mov    $0x4041d7,%esi
  4015ea:	bf 01 00 00 00       	mov    $0x1,%edi
  4015ef:	b8 00 00 00 00       	mov    $0x0,%eax
  4015f4:	e8 87 fb ff ff       	callq  401180 <__printf_chk@plt>
  4015f9:	48 8b 3b             	mov    (%rbx),%rdi
  4015fc:	e8 06 fd ff ff       	callq  401307 <usage>
  401601:	be 01 00 00 00       	mov    $0x1,%esi
  401606:	44 89 ef             	mov    %r13d,%edi
  401609:	e8 83 fd ff ff       	callq  401391 <initialize_target>
  40160e:	83 3d f3 5e 00 00 00 	cmpl   $0x0,0x5ef3(%rip)        # 407508 <is_checker>
  401615:	74 09                	je     401620 <main+0x175>
  401617:	44 39 35 e2 5e 00 00 	cmp    %r14d,0x5ee2(%rip)        # 407500 <authkey>
  40161e:	75 34                	jne    401654 <main+0x1a9>
  401620:	8b 15 de 5e 00 00    	mov    0x5ede(%rip),%edx        # 407504 <cookie>
  401626:	be ea 41 40 00       	mov    $0x4041ea,%esi
  40162b:	bf 01 00 00 00       	mov    $0x1,%edi
  401630:	b8 00 00 00 00       	mov    $0x0,%eax
  401635:	e8 46 fb ff ff       	callq  401180 <__printf_chk@plt>
  40163a:	48 8b 3d 3f 5e 00 00 	mov    0x5e3f(%rip),%rdi        # 407480 <buf_offset>
  401641:	e8 c2 0c 00 00       	callq  402308 <launch>
  401646:	b8 00 00 00 00       	mov    $0x0,%eax
  40164b:	5b                   	pop    %rbx
  40164c:	5d                   	pop    %rbp
  40164d:	41 5c                	pop    %r12
  40164f:	41 5d                	pop    %r13
  401651:	41 5e                	pop    %r14
  401653:	c3                   	retq   
  401654:	44 89 f2             	mov    %r14d,%edx
  401657:	be 10 41 40 00       	mov    $0x404110,%esi
  40165c:	bf 01 00 00 00       	mov    $0x1,%edi
  401661:	b8 00 00 00 00       	mov    $0x0,%eax
  401666:	e8 15 fb ff ff       	callq  401180 <__printf_chk@plt>
  40166b:	b8 00 00 00 00       	mov    $0x0,%eax
  401670:	e8 c4 07 00 00       	callq  401e39 <check_fail>
  401675:	eb a9                	jmp    401620 <main+0x175>

0000000000401677 <scramble>:
  401677:	4c 8d 54 24 08       	lea    0x8(%rsp),%r10
  40167c:	48 83 e4 f0          	and    $0xfffffffffffffff0,%rsp
  401680:	41 ff 72 f8          	pushq  -0x8(%r10)
  401684:	55                   	push   %rbp
  401685:	48 89 e5             	mov    %rsp,%rbp
  401688:	41 52                	push   %r10
  40168a:	48 83 ec 38          	sub    $0x38,%rsp
  40168e:	64 48 8b 04 25 28 00 	mov    %fs:0x28,%rax
  401695:	00 00 
  401697:	48 89 45 e8          	mov    %rax,-0x18(%rbp)
  40169b:	31 c0                	xor    %eax,%eax
  40169d:	eb 11                	jmp    4016b0 <scramble+0x39>
  40169f:	69 d0 08 c2 00 00    	imul   $0xc208,%eax,%edx
  4016a5:	01 fa                	add    %edi,%edx
  4016a7:	89 c1                	mov    %eax,%ecx
  4016a9:	89 54 8d c0          	mov    %edx,-0x40(%rbp,%rcx,4)
  4016ad:	83 c0 01             	add    $0x1,%eax
  4016b0:	83 f8 09             	cmp    $0x9,%eax
  4016b3:	76 ea                	jbe    40169f <scramble+0x28>
  4016b5:	8b 45 d8             	mov    -0x28(%rbp),%eax
  4016b8:	69 c0 96 74 00 00    	imul   $0x7496,%eax,%eax
  4016be:	89 45 d8             	mov    %eax,-0x28(%rbp)
  4016c1:	8b 45 e4             	mov    -0x1c(%rbp),%eax
  4016c4:	69 c0 f2 85 00 00    	imul   $0x85f2,%eax,%eax
  4016ca:	89 45 e4             	mov    %eax,-0x1c(%rbp)
  4016cd:	8b 45 c0             	mov    -0x40(%rbp),%eax
  4016d0:	69 c0 7e 07 00 00    	imul   $0x77e,%eax,%eax
  4016d6:	89 45 c0             	mov    %eax,-0x40(%rbp)
  4016d9:	8b 45 d0             	mov    -0x30(%rbp),%eax
  4016dc:	69 c0 4f 5d 00 00    	imul   $0x5d4f,%eax,%eax
  4016e2:	89 45 d0             	mov    %eax,-0x30(%rbp)
  4016e5:	8b 45 e0             	mov    -0x20(%rbp),%eax
  4016e8:	69 c0 a7 62 00 00    	imul   $0x62a7,%eax,%eax
  4016ee:	89 45 e0             	mov    %eax,-0x20(%rbp)
  4016f1:	8b 45 d0             	mov    -0x30(%rbp),%eax
  4016f4:	69 c0 1a ed 00 00    	imul   $0xed1a,%eax,%eax
  4016fa:	89 45 d0             	mov    %eax,-0x30(%rbp)
  4016fd:	8b 45 e0             	mov    -0x20(%rbp),%eax
  401700:	69 c0 fd 35 00 00    	imul   $0x35fd,%eax,%eax
  401706:	89 45 e0             	mov    %eax,-0x20(%rbp)
  401709:	8b 45 e0             	mov    -0x20(%rbp),%eax
  40170c:	69 c0 0f 70 00 00    	imul   $0x700f,%eax,%eax
  401712:	89 45 e0             	mov    %eax,-0x20(%rbp)
  401715:	8b 45 d0             	mov    -0x30(%rbp),%eax
  401718:	69 c0 61 be 00 00    	imul   $0xbe61,%eax,%eax
  40171e:	89 45 d0             	mov    %eax,-0x30(%rbp)
  401721:	8b 45 e4             	mov    -0x1c(%rbp),%eax
  401724:	69 c0 f3 b2 00 00    	imul   $0xb2f3,%eax,%eax
  40172a:	89 45 e4             	mov    %eax,-0x1c(%rbp)
  40172d:	8b 45 d4             	mov    -0x2c(%rbp),%eax
  401730:	69 c0 d7 1d 00 00    	imul   $0x1dd7,%eax,%eax
  401736:	89 45 d4             	mov    %eax,-0x2c(%rbp)
  401739:	8b 45 cc             	mov    -0x34(%rbp),%eax
  40173c:	69 c0 a6 f1 00 00    	imul   $0xf1a6,%eax,%eax
  401742:	89 45 cc             	mov    %eax,-0x34(%rbp)
  401745:	8b 45 cc             	mov    -0x34(%rbp),%eax
  401748:	69 c0 a4 29 00 00    	imul   $0x29a4,%eax,%eax
  40174e:	89 45 cc             	mov    %eax,-0x34(%rbp)
  401751:	8b 45 e0             	mov    -0x20(%rbp),%eax
  401754:	69 c0 91 e9 00 00    	imul   $0xe991,%eax,%eax
  40175a:	89 45 e0             	mov    %eax,-0x20(%rbp)
  40175d:	8b 45 e4             	mov    -0x1c(%rbp),%eax
  401760:	69 c0 0c 7b 00 00    	imul   $0x7b0c,%eax,%eax
  401766:	89 45 e4             	mov    %eax,-0x1c(%rbp)
  401769:	8b 45 c8             	mov    -0x38(%rbp),%eax
  40176c:	69 c0 12 77 00 00    	imul   $0x7712,%eax,%eax
  401772:	89 45 c8             	mov    %eax,-0x38(%rbp)
  401775:	8b 45 d0             	mov    -0x30(%rbp),%eax
  401778:	69 c0 86 94 00 00    	imul   $0x9486,%eax,%eax
  40177e:	89 45 d0             	mov    %eax,-0x30(%rbp)
  401781:	8b 45 d0             	mov    -0x30(%rbp),%eax
  401784:	69 c0 af f8 00 00    	imul   $0xf8af,%eax,%eax
  40178a:	89 45 d0             	mov    %eax,-0x30(%rbp)
  40178d:	8b 45 c0             	mov    -0x40(%rbp),%eax
  401790:	69 c0 3d 12 00 00    	imul   $0x123d,%eax,%eax
  401796:	89 45 c0             	mov    %eax,-0x40(%rbp)
  401799:	8b 45 c8             	mov    -0x38(%rbp),%eax
  40179c:	69 c0 1a d6 00 00    	imul   $0xd61a,%eax,%eax
  4017a2:	89 45 c8             	mov    %eax,-0x38(%rbp)
  4017a5:	8b 45 d0             	mov    -0x30(%rbp),%eax
  4017a8:	69 c0 d8 09 00 00    	imul   $0x9d8,%eax,%eax
  4017ae:	89 45 d0             	mov    %eax,-0x30(%rbp)
  4017b1:	8b 45 e4             	mov    -0x1c(%rbp),%eax
  4017b4:	69 c0 10 e8 00 00    	imul   $0xe810,%eax,%eax
  4017ba:	89 45 e4             	mov    %eax,-0x1c(%rbp)
  4017bd:	8b 45 d0             	mov    -0x30(%rbp),%eax
  4017c0:	69 c0 52 bb 00 00    	imul   $0xbb52,%eax,%eax
  4017c6:	89 45 d0             	mov    %eax,-0x30(%rbp)
  4017c9:	8b 45 d4             	mov    -0x2c(%rbp),%eax
  4017cc:	69 c0 4b 2f 00 00    	imul   $0x2f4b,%eax,%eax
  4017d2:	89 45 d4             	mov    %eax,-0x2c(%rbp)
  4017d5:	8b 45 e4             	mov    -0x1c(%rbp),%eax
  4017d8:	69 c0 68 58 00 00    	imul   $0x5868,%eax,%eax
  4017de:	89 45 e4             	mov    %eax,-0x1c(%rbp)
  4017e1:	8b 45 e0             	mov    -0x20(%rbp),%eax
  4017e4:	69 c0 04 32 00 00    	imul   $0x3204,%eax,%eax
  4017ea:	89 45 e0             	mov    %eax,-0x20(%rbp)
  4017ed:	8b 45 d8             	mov    -0x28(%rbp),%eax
  4017f0:	69 c0 0a e4 00 00    	imul   $0xe40a,%eax,%eax
  4017f6:	89 45 d8             	mov    %eax,-0x28(%rbp)
  4017f9:	8b 45 d8             	mov    -0x28(%rbp),%eax
  4017fc:	69 c0 1b d1 00 00    	imul   $0xd11b,%eax,%eax
  401802:	89 45 d8             	mov    %eax,-0x28(%rbp)
  401805:	8b 45 d0             	mov    -0x30(%rbp),%eax
  401808:	69 c0 7d fc 00 00    	imul   $0xfc7d,%eax,%eax
  40180e:	89 45 d0             	mov    %eax,-0x30(%rbp)
  401811:	8b 45 dc             	mov    -0x24(%rbp),%eax
  401814:	69 c0 b8 c2 00 00    	imul   $0xc2b8,%eax,%eax
  40181a:	89 45 dc             	mov    %eax,-0x24(%rbp)
  40181d:	8b 45 c8             	mov    -0x38(%rbp),%eax
  401820:	69 c0 84 73 00 00    	imul   $0x7384,%eax,%eax
  401826:	89 45 c8             	mov    %eax,-0x38(%rbp)
  401829:	8b 45 d0             	mov    -0x30(%rbp),%eax
  40182c:	69 c0 2c 67 00 00    	imul   $0x672c,%eax,%eax
  401832:	89 45 d0             	mov    %eax,-0x30(%rbp)
  401835:	8b 45 d4             	mov    -0x2c(%rbp),%eax
  401838:	69 c0 ce 36 00 00    	imul   $0x36ce,%eax,%eax
  40183e:	89 45 d4             	mov    %eax,-0x2c(%rbp)
  401841:	8b 45 d4             	mov    -0x2c(%rbp),%eax
  401844:	69 c0 0e a4 00 00    	imul   $0xa40e,%eax,%eax
  40184a:	89 45 d4             	mov    %eax,-0x2c(%rbp)
  40184d:	8b 45 c0             	mov    -0x40(%rbp),%eax
  401850:	69 c0 da b5 00 00    	imul   $0xb5da,%eax,%eax
  401856:	89 45 c0             	mov    %eax,-0x40(%rbp)
  401859:	8b 45 e0             	mov    -0x20(%rbp),%eax
  40185c:	69 c0 ef bd 00 00    	imul   $0xbdef,%eax,%eax
  401862:	89 45 e0             	mov    %eax,-0x20(%rbp)
  401865:	8b 45 e0             	mov    -0x20(%rbp),%eax
  401868:	69 c0 5c 3d 00 00    	imul   $0x3d5c,%eax,%eax
  40186e:	89 45 e0             	mov    %eax,-0x20(%rbp)
  401871:	8b 45 e0             	mov    -0x20(%rbp),%eax
  401874:	69 c0 88 ff 00 00    	imul   $0xff88,%eax,%eax
  40187a:	89 45 e0             	mov    %eax,-0x20(%rbp)
  40187d:	8b 45 e4             	mov    -0x1c(%rbp),%eax
  401880:	69 c0 20 fe 00 00    	imul   $0xfe20,%eax,%eax
  401886:	89 45 e4             	mov    %eax,-0x1c(%rbp)
  401889:	8b 45 d0             	mov    -0x30(%rbp),%eax
  40188c:	69 c0 62 72 00 00    	imul   $0x7262,%eax,%eax
  401892:	89 45 d0             	mov    %eax,-0x30(%rbp)
  401895:	8b 45 c0             	mov    -0x40(%rbp),%eax
  401898:	69 c0 12 11 00 00    	imul   $0x1112,%eax,%eax
  40189e:	89 45 c0             	mov    %eax,-0x40(%rbp)
  4018a1:	8b 45 d0             	mov    -0x30(%rbp),%eax
  4018a4:	69 c0 c8 cc 00 00    	imul   $0xccc8,%eax,%eax
  4018aa:	89 45 d0             	mov    %eax,-0x30(%rbp)
  4018ad:	8b 45 d4             	mov    -0x2c(%rbp),%eax
  4018b0:	69 c0 11 c8 00 00    	imul   $0xc811,%eax,%eax
  4018b6:	89 45 d4             	mov    %eax,-0x2c(%rbp)
  4018b9:	8b 45 c0             	mov    -0x40(%rbp),%eax
  4018bc:	69 c0 ca 02 00 00    	imul   $0x2ca,%eax,%eax
  4018c2:	89 45 c0             	mov    %eax,-0x40(%rbp)
  4018c5:	8b 45 d8             	mov    -0x28(%rbp),%eax
  4018c8:	69 c0 90 58 00 00    	imul   $0x5890,%eax,%eax
  4018ce:	89 45 d8             	mov    %eax,-0x28(%rbp)
  4018d1:	8b 45 e0             	mov    -0x20(%rbp),%eax
  4018d4:	69 c0 18 3c 00 00    	imul   $0x3c18,%eax,%eax
  4018da:	89 45 e0             	mov    %eax,-0x20(%rbp)
  4018dd:	8b 45 c8             	mov    -0x38(%rbp),%eax
  4018e0:	69 c0 4c ff 00 00    	imul   $0xff4c,%eax,%eax
  4018e6:	89 45 c8             	mov    %eax,-0x38(%rbp)
  4018e9:	8b 45 e4             	mov    -0x1c(%rbp),%eax
  4018ec:	69 c0 1e d4 00 00    	imul   $0xd41e,%eax,%eax
  4018f2:	89 45 e4             	mov    %eax,-0x1c(%rbp)
  4018f5:	8b 45 d0             	mov    -0x30(%rbp),%eax
  4018f8:	69 c0 1f 03 00 00    	imul   $0x31f,%eax,%eax
  4018fe:	89 45 d0             	mov    %eax,-0x30(%rbp)
  401901:	8b 45 dc             	mov    -0x24(%rbp),%eax
  401904:	69 c0 26 7f 00 00    	imul   $0x7f26,%eax,%eax
  40190a:	89 45 dc             	mov    %eax,-0x24(%rbp)
  40190d:	8b 45 d8             	mov    -0x28(%rbp),%eax
  401910:	69 c0 54 f2 00 00    	imul   $0xf254,%eax,%eax
  401916:	89 45 d8             	mov    %eax,-0x28(%rbp)
  401919:	8b 45 c0             	mov    -0x40(%rbp),%eax
  40191c:	69 c0 ac 78 00 00    	imul   $0x78ac,%eax,%eax
  401922:	89 45 c0             	mov    %eax,-0x40(%rbp)
  401925:	8b 45 d8             	mov    -0x28(%rbp),%eax
  401928:	69 c0 16 e3 00 00    	imul   $0xe316,%eax,%eax
  40192e:	89 45 d8             	mov    %eax,-0x28(%rbp)
  401931:	8b 45 d8             	mov    -0x28(%rbp),%eax
  401934:	69 c0 5e 28 00 00    	imul   $0x285e,%eax,%eax
  40193a:	89 45 d8             	mov    %eax,-0x28(%rbp)
  40193d:	8b 45 d8             	mov    -0x28(%rbp),%eax
  401940:	69 c0 07 a7 00 00    	imul   $0xa707,%eax,%eax
  401946:	89 45 d8             	mov    %eax,-0x28(%rbp)
  401949:	8b 45 d8             	mov    -0x28(%rbp),%eax
  40194c:	69 c0 be 37 00 00    	imul   $0x37be,%eax,%eax
  401952:	89 45 d8             	mov    %eax,-0x28(%rbp)
  401955:	8b 45 d4             	mov    -0x2c(%rbp),%eax
  401958:	69 c0 27 3f 00 00    	imul   $0x3f27,%eax,%eax
  40195e:	89 45 d4             	mov    %eax,-0x2c(%rbp)
  401961:	8b 45 e0             	mov    -0x20(%rbp),%eax
  401964:	69 c0 36 ad 00 00    	imul   $0xad36,%eax,%eax
  40196a:	89 45 e0             	mov    %eax,-0x20(%rbp)
  40196d:	8b 45 d4             	mov    -0x2c(%rbp),%eax
  401970:	69 c0 6a a2 00 00    	imul   $0xa26a,%eax,%eax
  401976:	89 45 d4             	mov    %eax,-0x2c(%rbp)
  401979:	8b 45 d8             	mov    -0x28(%rbp),%eax
  40197c:	69 c0 c6 cb 00 00    	imul   $0xcbc6,%eax,%eax
  401982:	89 45 d8             	mov    %eax,-0x28(%rbp)
  401985:	8b 45 c0             	mov    -0x40(%rbp),%eax
  401988:	69 c0 83 75 00 00    	imul   $0x7583,%eax,%eax
  40198e:	89 45 c0             	mov    %eax,-0x40(%rbp)
  401991:	8b 45 d0             	mov    -0x30(%rbp),%eax
  401994:	69 c0 0e c7 00 00    	imul   $0xc70e,%eax,%eax
  40199a:	89 45 d0             	mov    %eax,-0x30(%rbp)
  40199d:	8b 45 c0             	mov    -0x40(%rbp),%eax
  4019a0:	69 c0 22 ab 00 00    	imul   $0xab22,%eax,%eax
  4019a6:	89 45 c0             	mov    %eax,-0x40(%rbp)
  4019a9:	8b 45 d0             	mov    -0x30(%rbp),%eax
  4019ac:	69 c0 eb aa 00 00    	imul   $0xaaeb,%eax,%eax
  4019b2:	89 45 d0             	mov    %eax,-0x30(%rbp)
  4019b5:	8b 45 e4             	mov    -0x1c(%rbp),%eax
  4019b8:	69 c0 58 13 00 00    	imul   $0x1358,%eax,%eax
  4019be:	89 45 e4             	mov    %eax,-0x1c(%rbp)
  4019c1:	8b 45 c0             	mov    -0x40(%rbp),%eax
  4019c4:	69 c0 3b 67 00 00    	imul   $0x673b,%eax,%eax
  4019ca:	89 45 c0             	mov    %eax,-0x40(%rbp)
  4019cd:	8b 45 c4             	mov    -0x3c(%rbp),%eax
  4019d0:	69 c0 27 67 00 00    	imul   $0x6727,%eax,%eax
  4019d6:	89 45 c4             	mov    %eax,-0x3c(%rbp)
  4019d9:	8b 45 e4             	mov    -0x1c(%rbp),%eax
  4019dc:	69 c0 5c 35 00 00    	imul   $0x355c,%eax,%eax
  4019e2:	89 45 e4             	mov    %eax,-0x1c(%rbp)
  4019e5:	8b 45 c4             	mov    -0x3c(%rbp),%eax
  4019e8:	69 c0 1b 58 00 00    	imul   $0x581b,%eax,%eax
  4019ee:	89 45 c4             	mov    %eax,-0x3c(%rbp)
  4019f1:	8b 45 d4             	mov    -0x2c(%rbp),%eax
  4019f4:	69 c0 73 2b 00 00    	imul   $0x2b73,%eax,%eax
  4019fa:	89 45 d4             	mov    %eax,-0x2c(%rbp)
  4019fd:	8b 45 c0             	mov    -0x40(%rbp),%eax
  401a00:	69 c0 7b f8 00 00    	imul   $0xf87b,%eax,%eax
  401a06:	89 45 c0             	mov    %eax,-0x40(%rbp)
  401a09:	8b 45 d8             	mov    -0x28(%rbp),%eax
  401a0c:	69 c0 3d b7 00 00    	imul   $0xb73d,%eax,%eax
  401a12:	89 45 d8             	mov    %eax,-0x28(%rbp)
  401a15:	8b 45 dc             	mov    -0x24(%rbp),%eax
  401a18:	69 c0 b9 67 00 00    	imul   $0x67b9,%eax,%eax
  401a1e:	89 45 dc             	mov    %eax,-0x24(%rbp)
  401a21:	8b 45 e4             	mov    -0x1c(%rbp),%eax
  401a24:	69 c0 da 3e 00 00    	imul   $0x3eda,%eax,%eax
  401a2a:	89 45 e4             	mov    %eax,-0x1c(%rbp)
  401a2d:	8b 45 d4             	mov    -0x2c(%rbp),%eax
  401a30:	69 c0 74 14 00 00    	imul   $0x1474,%eax,%eax
  401a36:	89 45 d4             	mov    %eax,-0x2c(%rbp)
  401a39:	8b 45 e0             	mov    -0x20(%rbp),%eax
  401a3c:	69 c0 1e 05 00 00    	imul   $0x51e,%eax,%eax
  401a42:	89 45 e0             	mov    %eax,-0x20(%rbp)
  401a45:	8b 45 d0             	mov    -0x30(%rbp),%eax
  401a48:	69 c0 7f 12 00 00    	imul   $0x127f,%eax,%eax
  401a4e:	89 45 d0             	mov    %eax,-0x30(%rbp)
  401a51:	8b 45 c0             	mov    -0x40(%rbp),%eax
  401a54:	69 c0 c8 fe 00 00    	imul   $0xfec8,%eax,%eax
  401a5a:	89 45 c0             	mov    %eax,-0x40(%rbp)
  401a5d:	8b 45 dc             	mov    -0x24(%rbp),%eax
  401a60:	69 c0 59 67 00 00    	imul   $0x6759,%eax,%eax
  401a66:	89 45 dc             	mov    %eax,-0x24(%rbp)
  401a69:	ba 00 00 00 00       	mov    $0x0,%edx
  401a6e:	b8 00 00 00 00       	mov    $0x0,%eax
  401a73:	eb 0b                	jmp    401a80 <scramble+0x409>
  401a75:	89 d1                	mov    %edx,%ecx
  401a77:	8b 4c 8d c0          	mov    -0x40(%rbp,%rcx,4),%ecx
  401a7b:	01 c8                	add    %ecx,%eax
  401a7d:	83 c2 01             	add    $0x1,%edx
  401a80:	83 fa 09             	cmp    $0x9,%edx
  401a83:	76 f0                	jbe    401a75 <scramble+0x3fe>
  401a85:	48 8b 75 e8          	mov    -0x18(%rbp),%rsi
  401a89:	64 48 33 34 25 28 00 	xor    %fs:0x28,%rsi
  401a90:	00 00 
  401a92:	75 0c                	jne    401aa0 <scramble+0x429>
  401a94:	48 83 c4 38          	add    $0x38,%rsp
  401a98:	41 5a                	pop    %r10
  401a9a:	5d                   	pop    %rbp
  401a9b:	49 8d 62 f8          	lea    -0x8(%r10),%rsp
  401a9f:	c3                   	retq   
  401aa0:	e8 eb f5 ff ff       	callq  401090 <__stack_chk_fail@plt>

0000000000401aa5 <getbuf>:
  401aa5:	48 83 ec 18          	sub    $0x18,%rsp
  401aa9:	48 89 e7             	mov    %rsp,%rdi
  401aac:	e8 bd 03 00 00       	callq  401e6e <Gets>
  401ab1:	b8 01 00 00 00       	mov    $0x1,%eax
  401ab6:	48 83 c4 18          	add    $0x18,%rsp
  401aba:	c3                   	retq   

0000000000401abb <touch1>:
  401abb:	48 83 ec 08          	sub    $0x8,%rsp
  401abf:	c7 05 33 5a 00 00 01 	movl   $0x1,0x5a33(%rip)        # 4074fc <vlevel>
  401ac6:	00 00 00 
  401ac9:	bf b3 42 40 00       	mov    $0x4042b3,%edi
  401ace:	e8 9d f5 ff ff       	callq  401070 <puts@plt>
  401ad3:	bf 01 00 00 00       	mov    $0x1,%edi
  401ad8:	e8 01 06 00 00       	callq  4020de <validate>
  401add:	bf 00 00 00 00       	mov    $0x0,%edi
  401ae2:	e8 d9 f6 ff ff       	callq  4011c0 <exit@plt>

0000000000401ae7 <touch2>:
  401ae7:	48 83 ec 08          	sub    $0x8,%rsp
  401aeb:	89 fa                	mov    %edi,%edx
  401aed:	c7 05 05 5a 00 00 02 	movl   $0x2,0x5a05(%rip)        # 4074fc <vlevel>
  401af4:	00 00 00 
  401af7:	39 3d 07 5a 00 00    	cmp    %edi,0x5a07(%rip)        # 407504 <cookie>
  401afd:	74 28                	je     401b27 <touch2+0x40>
  401aff:	be 00 43 40 00       	mov    $0x404300,%esi
  401b04:	bf 01 00 00 00       	mov    $0x1,%edi
  401b09:	b8 00 00 00 00       	mov    $0x0,%eax
  401b0e:	e8 6d f6 ff ff       	callq  401180 <__printf_chk@plt>
  401b13:	bf 02 00 00 00       	mov    $0x2,%edi
  401b18:	e8 86 06 00 00       	callq  4021a3 <fail>
  401b1d:	bf 00 00 00 00       	mov    $0x0,%edi
  401b22:	e8 99 f6 ff ff       	callq  4011c0 <exit@plt>
  401b27:	be d8 42 40 00       	mov    $0x4042d8,%esi
  401b2c:	bf 01 00 00 00       	mov    $0x1,%edi
  401b31:	b8 00 00 00 00       	mov    $0x0,%eax
  401b36:	e8 45 f6 ff ff       	callq  401180 <__printf_chk@plt>
  401b3b:	bf 02 00 00 00       	mov    $0x2,%edi
  401b40:	e8 99 05 00 00       	callq  4020de <validate>
  401b45:	eb d6                	jmp    401b1d <touch2+0x36>

0000000000401b47 <hexmatch>:
  401b47:	4c 8d 54 24 08       	lea    0x8(%rsp),%r10
  401b4c:	48 83 e4 f0          	and    $0xfffffffffffffff0,%rsp
  401b50:	41 ff 72 f8          	pushq  -0x8(%r10)
  401b54:	55                   	push   %rbp
  401b55:	48 89 e5             	mov    %rsp,%rbp
  401b58:	41 55                	push   %r13
  401b5a:	41 54                	push   %r12
  401b5c:	41 52                	push   %r10
  401b5e:	53                   	push   %rbx
  401b5f:	48 83 c4 80          	add    $0xffffffffffffff80,%rsp
  401b63:	41 89 fc             	mov    %edi,%r12d
  401b66:	48 89 f3             	mov    %rsi,%rbx
  401b69:	64 48 8b 04 25 28 00 	mov    %fs:0x28,%rax
  401b70:	00 00 
  401b72:	48 89 45 d8          	mov    %rax,-0x28(%rbp)
  401b76:	31 c0                	xor    %eax,%eax
  401b78:	e8 d3 f5 ff ff       	callq  401150 <random@plt>
  401b7d:	48 89 c1             	mov    %rax,%rcx
  401b80:	48 ba 0b d7 a3 70 3d 	movabs $0xa3d70a3d70a3d70b,%rdx
  401b87:	0a d7 a3 
  401b8a:	48 f7 ea             	imul   %rdx
  401b8d:	48 01 ca             	add    %rcx,%rdx
  401b90:	48 c1 fa 06          	sar    $0x6,%rdx
  401b94:	48 89 c8             	mov    %rcx,%rax
  401b97:	48 c1 f8 3f          	sar    $0x3f,%rax
  401b9b:	48 29 c2             	sub    %rax,%rdx
  401b9e:	48 8d 04 92          	lea    (%rdx,%rdx,4),%rax
  401ba2:	48 8d 14 80          	lea    (%rax,%rax,4),%rdx
  401ba6:	48 8d 04 95 00 00 00 	lea    0x0(,%rdx,4),%rax
  401bad:	00 
  401bae:	48 29 c1             	sub    %rax,%rcx
  401bb1:	4c 8d ac 0d 60 ff ff 	lea    -0xa0(%rbp,%rcx,1),%r13
  401bb8:	ff 
  401bb9:	45 89 e0             	mov    %r12d,%r8d
  401bbc:	b9 d0 42 40 00       	mov    $0x4042d0,%ecx
  401bc1:	48 c7 c2 ff ff ff ff 	mov    $0xffffffffffffffff,%rdx
  401bc8:	be 01 00 00 00       	mov    $0x1,%esi
  401bcd:	4c 89 ef             	mov    %r13,%rdi
  401bd0:	b8 00 00 00 00       	mov    $0x0,%eax
  401bd5:	e8 26 f6 ff ff       	callq  401200 <__sprintf_chk@plt>
  401bda:	ba 09 00 00 00       	mov    $0x9,%edx
  401bdf:	4c 89 ee             	mov    %r13,%rsi
  401be2:	48 89 df             	mov    %rbx,%rdi
  401be5:	e8 66 f4 ff ff       	callq  401050 <strncmp@plt>
  401bea:	85 c0                	test   %eax,%eax
  401bec:	0f 94 c0             	sete   %al
  401bef:	48 8b 5d d8          	mov    -0x28(%rbp),%rbx
  401bf3:	64 48 33 1c 25 28 00 	xor    %fs:0x28,%rbx
  401bfa:	00 00 
  401bfc:	75 14                	jne    401c12 <hexmatch+0xcb>
  401bfe:	0f b6 c0             	movzbl %al,%eax
  401c01:	48 83 ec 80          	sub    $0xffffffffffffff80,%rsp
  401c05:	5b                   	pop    %rbx
  401c06:	41 5a                	pop    %r10
  401c08:	41 5c                	pop    %r12
  401c0a:	41 5d                	pop    %r13
  401c0c:	5d                   	pop    %rbp
  401c0d:	49 8d 62 f8          	lea    -0x8(%r10),%rsp
  401c11:	c3                   	retq   
  401c12:	e8 79 f4 ff ff       	callq  401090 <__stack_chk_fail@plt>

0000000000401c17 <touch3>:
  401c17:	53                   	push   %rbx
  401c18:	48 89 fb             	mov    %rdi,%rbx
  401c1b:	c7 05 d7 58 00 00 03 	movl   $0x3,0x58d7(%rip)        # 4074fc <vlevel>
  401c22:	00 00 00 
  401c25:	48 89 fe             	mov    %rdi,%rsi
  401c28:	8b 3d d6 58 00 00    	mov    0x58d6(%rip),%edi        # 407504 <cookie>
  401c2e:	e8 14 ff ff ff       	callq  401b47 <hexmatch>
  401c33:	85 c0                	test   %eax,%eax
  401c35:	74 2b                	je     401c62 <touch3+0x4b>
  401c37:	48 89 da             	mov    %rbx,%rdx
  401c3a:	be 28 43 40 00       	mov    $0x404328,%esi
  401c3f:	bf 01 00 00 00       	mov    $0x1,%edi
  401c44:	b8 00 00 00 00       	mov    $0x0,%eax
  401c49:	e8 32 f5 ff ff       	callq  401180 <__printf_chk@plt>
  401c4e:	bf 03 00 00 00       	mov    $0x3,%edi
  401c53:	e8 86 04 00 00       	callq  4020de <validate>
  401c58:	bf 00 00 00 00       	mov    $0x0,%edi
  401c5d:	e8 5e f5 ff ff       	callq  4011c0 <exit@plt>
  401c62:	48 89 da             	mov    %rbx,%rdx
  401c65:	be 50 43 40 00       	mov    $0x404350,%esi
  401c6a:	bf 01 00 00 00       	mov    $0x1,%edi
  401c6f:	b8 00 00 00 00       	mov    $0x0,%eax
  401c74:	e8 07 f5 ff ff       	callq  401180 <__printf_chk@plt>
  401c79:	bf 03 00 00 00       	mov    $0x3,%edi
  401c7e:	e8 20 05 00 00       	callq  4021a3 <fail>
  401c83:	eb d3                	jmp    401c58 <touch3+0x41>

0000000000401c85 <test>:
  401c85:	48 83 ec 08          	sub    $0x8,%rsp
  401c89:	b8 00 00 00 00       	mov    $0x0,%eax
  401c8e:	e8 12 fe ff ff       	callq  401aa5 <getbuf>
  401c93:	89 c2                	mov    %eax,%edx
  401c95:	be 78 43 40 00       	mov    $0x404378,%esi
  401c9a:	bf 01 00 00 00       	mov    $0x1,%edi
  401c9f:	b8 00 00 00 00       	mov    $0x0,%eax
  401ca4:	e8 d7 f4 ff ff       	callq  401180 <__printf_chk@plt>
  401ca9:	48 83 c4 08          	add    $0x8,%rsp
  401cad:	c3                   	retq   

0000000000401cae <start_farm>:
  401cae:	b8 01 00 00 00       	mov    $0x1,%eax
  401cb3:	c3                   	retq   

0000000000401cb4 <setval_286>:
  401cb4:	c7 07 49 89 c7 c3    	movl   $0xc3c78949,(%rdi)
  401cba:	c3                   	retq   

0000000000401cbb <addval_461>:
  401cbb:	8d 87 58 c3 b6 70    	lea    0x70b6c358(%rdi),%eax
  401cc1:	c3                   	retq   

0000000000401cc2 <addval_109>:
  401cc2:	8d 87 48 89 c7 c3    	lea    -0x3c3876b8(%rdi),%eax
  401cc8:	c3                   	retq   

0000000000401cc9 <setval_410>:
  401cc9:	c7 07 6e 21 bd 58    	movl   $0x58bd216e,(%rdi)
  401ccf:	c3                   	retq   

0000000000401cd0 <getval_481>:
  401cd0:	b8 4e 29 58 c2       	mov    $0xc258294e,%eax
  401cd5:	c3                   	retq   

0000000000401cd6 <addval_107>:
  401cd6:	8d 87 94 d3 03 78    	lea    0x7803d394(%rdi),%eax
  401cdc:	c3                   	retq   

0000000000401cdd <setval_140>:
  401cdd:	c7 07 48 89 c7 90    	movl   $0x90c78948,(%rdi)
  401ce3:	c3                   	retq   

0000000000401ce4 <addval_353>:
  401ce4:	8d 87 8d 49 89 c7    	lea    -0x3876b673(%rdi),%eax
  401cea:	c3                   	retq   

0000000000401ceb <mid_farm>:
  401ceb:	b8 01 00 00 00       	mov    $0x1,%eax
  401cf0:	c3                   	retq   

0000000000401cf1 <add_xy>:
  401cf1:	48 8d 04 37          	lea    (%rdi,%rsi,1),%rax
  401cf5:	c3                   	retq   

0000000000401cf6 <addval_374>:
  401cf6:	8d 87 89 d1 78 d2    	lea    -0x2d872e77(%rdi),%eax
  401cfc:	c3                   	retq   

0000000000401cfd <setval_385>:
  401cfd:	c7 07 89 d1 c3 f9    	movl   $0xf9c3d189,(%rdi)
  401d03:	c3                   	retq   

0000000000401d04 <getval_110>:
  401d04:	b8 68 89 e0 90       	mov    $0x90e08968,%eax
  401d09:	c3                   	retq   

0000000000401d0a <getval_364>:
  401d0a:	b8 89 c2 38 db       	mov    $0xdb38c289,%eax
  401d0f:	c3                   	retq   

0000000000401d10 <setval_318>:
  401d10:	c7 07 48 99 e0 c3    	movl   $0xc3e09948,(%rdi)
  401d16:	c3                   	retq   

0000000000401d17 <setval_425>:
  401d17:	c7 07 48 89 e0 c7    	movl   $0xc7e08948,(%rdi)
  401d1d:	c3                   	retq   

0000000000401d1e <getval_496>:
  401d1e:	b8 4c 89 e0 90       	mov    $0x90e0894c,%eax
  401d23:	c3                   	retq   

0000000000401d24 <addval_183>:
  401d24:	8d 87 81 c2 38 c9    	lea    -0x36c73d7f(%rdi),%eax
  401d2a:	c3                   	retq   

0000000000401d2b <getval_150>:
  401d2b:	b8 89 ce 30 db       	mov    $0xdb30ce89,%eax
  401d30:	c3                   	retq   

0000000000401d31 <getval_198>:
  401d31:	b8 89 ce c4 d2       	mov    $0xd2c4ce89,%eax
  401d36:	c3                   	retq   

0000000000401d37 <addval_259>:
  401d37:	8d 87 89 c2 38 d2    	lea    -0x2dc73d77(%rdi),%eax
  401d3d:	c3                   	retq   

0000000000401d3e <getval_112>:
  401d3e:	b8 99 c2 84 c9       	mov    $0xc984c299,%eax
  401d43:	c3                   	retq   

0000000000401d44 <getval_422>:
  401d44:	b8 58 70 8d ce       	mov    $0xce8d7058,%eax
  401d49:	c3                   	retq   

0000000000401d4a <getval_463>:
  401d4a:	b8 89 c2 94 c9       	mov    $0xc994c289,%eax
  401d4f:	c3                   	retq   

0000000000401d50 <addval_457>:
  401d50:	8d 87 89 ce 08 d2    	lea    -0x2df73177(%rdi),%eax
  401d56:	c3                   	retq   

0000000000401d57 <getval_391>:
  401d57:	b8 88 ce 90 90       	mov    $0x9090ce88,%eax
  401d5c:	c3                   	retq   

0000000000401d5d <getval_409>:
  401d5d:	b8 b1 48 89 e0       	mov    $0xe08948b1,%eax
  401d62:	c3                   	retq   

0000000000401d63 <addval_100>:
  401d63:	8d 87 89 d1 08 c9    	lea    -0x36f72e77(%rdi),%eax
  401d69:	c3                   	retq   

0000000000401d6a <setval_234>:
  401d6a:	c7 07 89 c2 28 d2    	movl   $0xd228c289,(%rdi)
  401d70:	c3                   	retq   

0000000000401d71 <addval_255>:
  401d71:	8d 87 89 ce 20 c9    	lea    -0x36df3177(%rdi),%eax
  401d77:	c3                   	retq   

0000000000401d78 <setval_203>:
  401d78:	c7 07 89 d1 18 db    	movl   $0xdb18d189,(%rdi)
  401d7e:	c3                   	retq   

0000000000401d7f <setval_369>:
  401d7f:	c7 07 b7 89 ce 92    	movl   $0x92ce89b7,(%rdi)
  401d85:	c3                   	retq   

0000000000401d86 <getval_242>:
  401d86:	b8 c9 c2 08 db       	mov    $0xdb08c2c9,%eax
  401d8b:	c3                   	retq   

0000000000401d8c <addval_475>:
  401d8c:	8d 87 88 c2 c3 db    	lea    -0x243c3d78(%rdi),%eax
  401d92:	c3                   	retq   

0000000000401d93 <addval_448>:
  401d93:	8d 87 8d d1 08 c0    	lea    -0x3ff72e73(%rdi),%eax
  401d99:	c3                   	retq   

0000000000401d9a <getval_484>:
  401d9a:	b8 09 ce 38 db       	mov    $0xdb38ce09,%eax
  401d9f:	c3                   	retq   

0000000000401da0 <setval_164>:
  401da0:	c7 07 48 89 e0 c3    	movl   $0xc3e08948,(%rdi)
  401da6:	c3                   	retq   

0000000000401da7 <addval_465>:
  401da7:	8d 87 89 d1 18 c0    	lea    -0x3fe72e77(%rdi),%eax
  401dad:	c3                   	retq   

0000000000401dae <setval_468>:
  401dae:	c7 07 88 d1 20 c0    	movl   $0xc020d188,(%rdi)
  401db4:	c3                   	retq   

0000000000401db5 <addval_199>:
  401db5:	8d 87 48 89 e0 c7    	lea    -0x381f76b8(%rdi),%eax
  401dbb:	c3                   	retq   

0000000000401dbc <getval_386>:
  401dbc:	b8 48 89 e0 c1       	mov    $0xc1e08948,%eax
  401dc1:	c3                   	retq   

0000000000401dc2 <getval_205>:
  401dc2:	b8 b6 89 d1 91       	mov    $0x91d189b6,%eax
  401dc7:	c3                   	retq   

0000000000401dc8 <end_farm>:
  401dc8:	b8 01 00 00 00       	mov    $0x1,%eax
  401dcd:	c3                   	retq   

0000000000401dce <save_char>:
  401dce:	8b 05 50 63 00 00    	mov    0x6350(%rip),%eax        # 408124 <gets_cnt>
  401dd4:	3d ff 03 00 00       	cmp    $0x3ff,%eax
  401dd9:	7f 49                	jg     401e24 <save_char+0x56>
  401ddb:	89 f9                	mov    %edi,%ecx
  401ddd:	c0 e9 04             	shr    $0x4,%cl
  401de0:	8d 14 40             	lea    (%rax,%rax,2),%edx
  401de3:	83 e1 0f             	and    $0xf,%ecx
  401de6:	0f b6 b1 a0 46 40 00 	movzbl 0x4046a0(%rcx),%esi
  401ded:	48 63 ca             	movslq %edx,%rcx
  401df0:	40 88 b1 20 75 40 00 	mov    %sil,0x407520(%rcx)
  401df7:	8d 4a 01             	lea    0x1(%rdx),%ecx
  401dfa:	83 e7 0f             	and    $0xf,%edi
  401dfd:	0f b6 b7 a0 46 40 00 	movzbl 0x4046a0(%rdi),%esi
  401e04:	48 63 c9             	movslq %ecx,%rcx
  401e07:	40 88 b1 20 75 40 00 	mov    %sil,0x407520(%rcx)
  401e0e:	83 c2 02             	add    $0x2,%edx
  401e11:	48 63 d2             	movslq %edx,%rdx
  401e14:	c6 82 20 75 40 00 20 	movb   $0x20,0x407520(%rdx)
  401e1b:	83 c0 01             	add    $0x1,%eax
  401e1e:	89 05 00 63 00 00    	mov    %eax,0x6300(%rip)        # 408124 <gets_cnt>
  401e24:	f3 c3                	repz retq 

0000000000401e26 <save_term>:
  401e26:	8b 05 f8 62 00 00    	mov    0x62f8(%rip),%eax        # 408124 <gets_cnt>
  401e2c:	8d 04 40             	lea    (%rax,%rax,2),%eax
  401e2f:	48 98                	cltq   
  401e31:	c6 80 20 75 40 00 00 	movb   $0x0,0x407520(%rax)
  401e38:	c3                   	retq   

0000000000401e39 <check_fail>:
  401e39:	48 83 ec 08          	sub    $0x8,%rsp
  401e3d:	0f be 15 e4 62 00 00 	movsbl 0x62e4(%rip),%edx        # 408128 <target_prefix>
  401e44:	41 b8 20 75 40 00    	mov    $0x407520,%r8d
  401e4a:	8b 0d a8 56 00 00    	mov    0x56a8(%rip),%ecx        # 4074f8 <check_level>
  401e50:	be 9b 43 40 00       	mov    $0x40439b,%esi
  401e55:	bf 01 00 00 00       	mov    $0x1,%edi
  401e5a:	b8 00 00 00 00       	mov    $0x0,%eax
  401e5f:	e8 1c f3 ff ff       	callq  401180 <__printf_chk@plt>
  401e64:	bf 01 00 00 00       	mov    $0x1,%edi
  401e69:	e8 52 f3 ff ff       	callq  4011c0 <exit@plt>

0000000000401e6e <Gets>:
  401e6e:	41 54                	push   %r12
  401e70:	55                   	push   %rbp
  401e71:	53                   	push   %rbx
  401e72:	49 89 fc             	mov    %rdi,%r12
  401e75:	c7 05 a5 62 00 00 00 	movl   $0x0,0x62a5(%rip)        # 408124 <gets_cnt>
  401e7c:	00 00 00 
  401e7f:	48 89 fb             	mov    %rdi,%rbx
  401e82:	eb 11                	jmp    401e95 <Gets+0x27>
  401e84:	48 8d 6b 01          	lea    0x1(%rbx),%rbp
  401e88:	88 03                	mov    %al,(%rbx)
  401e8a:	0f b6 f8             	movzbl %al,%edi
  401e8d:	e8 3c ff ff ff       	callq  401dce <save_char>
  401e92:	48 89 eb             	mov    %rbp,%rbx
  401e95:	48 8b 3d 54 56 00 00 	mov    0x5654(%rip),%rdi        # 4074f0 <infile>
  401e9c:	e8 4f f3 ff ff       	callq  4011f0 <getc@plt>
  401ea1:	83 f8 ff             	cmp    $0xffffffff,%eax
  401ea4:	74 05                	je     401eab <Gets+0x3d>
  401ea6:	83 f8 0a             	cmp    $0xa,%eax
  401ea9:	75 d9                	jne    401e84 <Gets+0x16>
  401eab:	c6 03 00             	movb   $0x0,(%rbx)
  401eae:	b8 00 00 00 00       	mov    $0x0,%eax
  401eb3:	e8 6e ff ff ff       	callq  401e26 <save_term>
  401eb8:	4c 89 e0             	mov    %r12,%rax
  401ebb:	5b                   	pop    %rbx
  401ebc:	5d                   	pop    %rbp
  401ebd:	41 5c                	pop    %r12
  401ebf:	c3                   	retq   

0000000000401ec0 <notify_server>:
  401ec0:	4c 8d 54 24 08       	lea    0x8(%rsp),%r10
  401ec5:	48 83 e4 f0          	and    $0xfffffffffffffff0,%rsp
  401ec9:	41 ff 72 f8          	pushq  -0x8(%r10)
  401ecd:	55                   	push   %rbp
  401ece:	48 89 e5             	mov    %rsp,%rbp
  401ed1:	41 54                	push   %r12
  401ed3:	41 52                	push   %r10
  401ed5:	53                   	push   %rbx
  401ed6:	48 81 ec 18 40 00 00 	sub    $0x4018,%rsp
  401edd:	64 48 8b 04 25 28 00 	mov    %fs:0x28,%rax
  401ee4:	00 00 
  401ee6:	48 89 45 d8          	mov    %rax,-0x28(%rbp)
  401eea:	31 c0                	xor    %eax,%eax
  401eec:	83 3d 15 56 00 00 00 	cmpl   $0x0,0x5615(%rip)        # 407508 <is_checker>
  401ef3:	0f 85 cf 00 00 00    	jne    401fc8 <notify_server+0x108>
  401ef9:	89 fb                	mov    %edi,%ebx
  401efb:	8b 05 23 62 00 00    	mov    0x6223(%rip),%eax        # 408124 <gets_cnt>
  401f01:	83 c0 64             	add    $0x64,%eax
  401f04:	3d 00 20 00 00       	cmp    $0x2000,%eax
  401f09:	0f 8f db 00 00 00    	jg     401fea <notify_server+0x12a>
  401f0f:	0f be 05 12 62 00 00 	movsbl 0x6212(%rip),%eax        # 408128 <target_prefix>
  401f16:	83 3d 6b 55 00 00 00 	cmpl   $0x0,0x556b(%rip)        # 407488 <notify>
  401f1d:	0f 84 e5 00 00 00    	je     402008 <notify_server+0x148>
  401f23:	8b 15 d7 55 00 00    	mov    0x55d7(%rip),%edx        # 407500 <authkey>
  401f29:	85 db                	test   %ebx,%ebx
  401f2b:	0f 84 e1 00 00 00    	je     402012 <notify_server+0x152>
  401f31:	41 bc b1 43 40 00    	mov    $0x4043b1,%r12d
  401f37:	68 20 75 40 00       	pushq  $0x407520
  401f3c:	56                   	push   %rsi
  401f3d:	50                   	push   %rax
  401f3e:	52                   	push   %rdx
  401f3f:	4d 89 e1             	mov    %r12,%r9
  401f42:	44 8b 05 ff 51 00 00 	mov    0x51ff(%rip),%r8d        # 407148 <target_id>
  401f49:	b9 bb 43 40 00       	mov    $0x4043bb,%ecx
  401f4e:	ba 00 20 00 00       	mov    $0x2000,%edx
  401f53:	be 01 00 00 00       	mov    $0x1,%esi
  401f58:	48 8d bd d0 bf ff ff 	lea    -0x4030(%rbp),%rdi
  401f5f:	b8 00 00 00 00       	mov    $0x0,%eax
  401f64:	e8 97 f2 ff ff       	callq  401200 <__sprintf_chk@plt>
  401f69:	48 83 c4 20          	add    $0x20,%rsp
  401f6d:	83 3d 14 55 00 00 00 	cmpl   $0x0,0x5514(%rip)        # 407488 <notify>
  401f74:	0f 84 d7 00 00 00    	je     402051 <notify_server+0x191>
  401f7a:	85 db                	test   %ebx,%ebx
  401f7c:	0f 84 c0 00 00 00    	je     402042 <notify_server+0x182>
  401f82:	4c 8d 8d d0 df ff ff 	lea    -0x2030(%rbp),%r9
  401f89:	41 b8 00 00 00 00    	mov    $0x0,%r8d
  401f8f:	48 8d 8d d0 bf ff ff 	lea    -0x4030(%rbp),%rcx
  401f96:	48 8b 15 b3 51 00 00 	mov    0x51b3(%rip),%rdx        # 407150 <lab>
  401f9d:	48 8b 35 b4 51 00 00 	mov    0x51b4(%rip),%rsi        # 407158 <course>
  401fa4:	48 8b 3d 95 51 00 00 	mov    0x5195(%rip),%rdi        # 407140 <user_id>
  401fab:	e8 ed 11 00 00       	callq  40319d <driver_post>
  401fb0:	85 c0                	test   %eax,%eax
  401fb2:	78 69                	js     40201d <notify_server+0x15d>
  401fb4:	bf 00 45 40 00       	mov    $0x404500,%edi
  401fb9:	e8 b2 f0 ff ff       	callq  401070 <puts@plt>
  401fbe:	bf e3 43 40 00       	mov    $0x4043e3,%edi
  401fc3:	e8 a8 f0 ff ff       	callq  401070 <puts@plt>
  401fc8:	48 8b 45 d8          	mov    -0x28(%rbp),%rax
  401fcc:	64 48 33 04 25 28 00 	xor    %fs:0x28,%rax
  401fd3:	00 00 
  401fd5:	0f 85 fe 00 00 00    	jne    4020d9 <notify_server+0x219>
  401fdb:	48 8d 65 e8          	lea    -0x18(%rbp),%rsp
  401fdf:	5b                   	pop    %rbx
  401fe0:	41 5a                	pop    %r10
  401fe2:	41 5c                	pop    %r12
  401fe4:	5d                   	pop    %rbp
  401fe5:	49 8d 62 f8          	lea    -0x8(%r10),%rsp
  401fe9:	c3                   	retq   
  401fea:	be d0 44 40 00       	mov    $0x4044d0,%esi
  401fef:	bf 01 00 00 00       	mov    $0x1,%edi
  401ff4:	b8 00 00 00 00       	mov    $0x0,%eax
  401ff9:	e8 82 f1 ff ff       	callq  401180 <__printf_chk@plt>
  401ffe:	bf 01 00 00 00       	mov    $0x1,%edi
  402003:	e8 b8 f1 ff ff       	callq  4011c0 <exit@plt>
  402008:	ba ff ff ff ff       	mov    $0xffffffff,%edx
  40200d:	e9 17 ff ff ff       	jmpq   401f29 <notify_server+0x69>
  402012:	41 bc b6 43 40 00    	mov    $0x4043b6,%r12d
  402018:	e9 1a ff ff ff       	jmpq   401f37 <notify_server+0x77>
  40201d:	48 8d 95 d0 df ff ff 	lea    -0x2030(%rbp),%rdx
  402024:	be d7 43 40 00       	mov    $0x4043d7,%esi
  402029:	bf 01 00 00 00       	mov    $0x1,%edi
  40202e:	b8 00 00 00 00       	mov    $0x0,%eax
  402033:	e8 48 f1 ff ff       	callq  401180 <__printf_chk@plt>
  402038:	bf 01 00 00 00       	mov    $0x1,%edi
  40203d:	e8 7e f1 ff ff       	callq  4011c0 <exit@plt>
  402042:	bf ed 43 40 00       	mov    $0x4043ed,%edi
  402047:	e8 24 f0 ff ff       	callq  401070 <puts@plt>
  40204c:	e9 77 ff ff ff       	jmpq   401fc8 <notify_server+0x108>
  402051:	4c 89 e2             	mov    %r12,%rdx
  402054:	be 38 45 40 00       	mov    $0x404538,%esi
  402059:	bf 01 00 00 00       	mov    $0x1,%edi
  40205e:	b8 00 00 00 00       	mov    $0x0,%eax
  402063:	e8 18 f1 ff ff       	callq  401180 <__printf_chk@plt>
  402068:	48 8b 15 d1 50 00 00 	mov    0x50d1(%rip),%rdx        # 407140 <user_id>
  40206f:	be f4 43 40 00       	mov    $0x4043f4,%esi
  402074:	bf 01 00 00 00       	mov    $0x1,%edi
  402079:	b8 00 00 00 00       	mov    $0x0,%eax
  40207e:	e8 fd f0 ff ff       	callq  401180 <__printf_chk@plt>
  402083:	48 8b 15 ce 50 00 00 	mov    0x50ce(%rip),%rdx        # 407158 <course>
  40208a:	be 01 44 40 00       	mov    $0x404401,%esi
  40208f:	bf 01 00 00 00       	mov    $0x1,%edi
  402094:	b8 00 00 00 00       	mov    $0x0,%eax
  402099:	e8 e2 f0 ff ff       	callq  401180 <__printf_chk@plt>
  40209e:	48 8b 15 ab 50 00 00 	mov    0x50ab(%rip),%rdx        # 407150 <lab>
  4020a5:	be 0d 44 40 00       	mov    $0x40440d,%esi
  4020aa:	bf 01 00 00 00       	mov    $0x1,%edi
  4020af:	b8 00 00 00 00       	mov    $0x0,%eax
  4020b4:	e8 c7 f0 ff ff       	callq  401180 <__printf_chk@plt>
  4020b9:	48 8d 95 d0 bf ff ff 	lea    -0x4030(%rbp),%rdx
  4020c0:	be 16 44 40 00       	mov    $0x404416,%esi
  4020c5:	bf 01 00 00 00       	mov    $0x1,%edi
  4020ca:	b8 00 00 00 00       	mov    $0x0,%eax
  4020cf:	e8 ac f0 ff ff       	callq  401180 <__printf_chk@plt>
  4020d4:	e9 ef fe ff ff       	jmpq   401fc8 <notify_server+0x108>
  4020d9:	e8 b2 ef ff ff       	callq  401090 <__stack_chk_fail@plt>

00000000004020de <validate>:
  4020de:	53                   	push   %rbx
  4020df:	89 fb                	mov    %edi,%ebx
  4020e1:	83 3d 20 54 00 00 00 	cmpl   $0x0,0x5420(%rip)        # 407508 <is_checker>
  4020e8:	74 6b                	je     402155 <validate+0x77>
  4020ea:	39 3d 0c 54 00 00    	cmp    %edi,0x540c(%rip)        # 4074fc <vlevel>
  4020f0:	75 2f                	jne    402121 <validate+0x43>
  4020f2:	8b 15 00 54 00 00    	mov    0x5400(%rip),%edx        # 4074f8 <check_level>
  4020f8:	39 fa                	cmp    %edi,%edx
  4020fa:	75 39                	jne    402135 <validate+0x57>
  4020fc:	0f be 15 25 60 00 00 	movsbl 0x6025(%rip),%edx        # 408128 <target_prefix>
  402103:	41 b8 20 75 40 00    	mov    $0x407520,%r8d
  402109:	89 f9                	mov    %edi,%ecx
  40210b:	be 40 44 40 00       	mov    $0x404440,%esi
  402110:	bf 01 00 00 00       	mov    $0x1,%edi
  402115:	b8 00 00 00 00       	mov    $0x0,%eax
  40211a:	e8 61 f0 ff ff       	callq  401180 <__printf_chk@plt>
  40211f:	5b                   	pop    %rbx
  402120:	c3                   	retq   
  402121:	bf 22 44 40 00       	mov    $0x404422,%edi
  402126:	e8 45 ef ff ff       	callq  401070 <puts@plt>
  40212b:	b8 00 00 00 00       	mov    $0x0,%eax
  402130:	e8 04 fd ff ff       	callq  401e39 <check_fail>
  402135:	89 f9                	mov    %edi,%ecx
  402137:	be 60 45 40 00       	mov    $0x404560,%esi
  40213c:	bf 01 00 00 00       	mov    $0x1,%edi
  402141:	b8 00 00 00 00       	mov    $0x0,%eax
  402146:	e8 35 f0 ff ff       	callq  401180 <__printf_chk@plt>
  40214b:	b8 00 00 00 00       	mov    $0x0,%eax
  402150:	e8 e4 fc ff ff       	callq  401e39 <check_fail>
  402155:	39 3d a1 53 00 00    	cmp    %edi,0x53a1(%rip)        # 4074fc <vlevel>
  40215b:	74 18                	je     402175 <validate+0x97>
  40215d:	bf 22 44 40 00       	mov    $0x404422,%edi
  402162:	e8 09 ef ff ff       	callq  401070 <puts@plt>
  402167:	89 de                	mov    %ebx,%esi
  402169:	bf 00 00 00 00       	mov    $0x0,%edi
  40216e:	e8 4d fd ff ff       	callq  401ec0 <notify_server>
  402173:	eb aa                	jmp    40211f <validate+0x41>
  402175:	0f be 0d ac 5f 00 00 	movsbl 0x5fac(%rip),%ecx        # 408128 <target_prefix>
  40217c:	89 fa                	mov    %edi,%edx
  40217e:	be 88 45 40 00       	mov    $0x404588,%esi
  402183:	bf 01 00 00 00       	mov    $0x1,%edi
  402188:	b8 00 00 00 00       	mov    $0x0,%eax
  40218d:	e8 ee ef ff ff       	callq  401180 <__printf_chk@plt>
  402192:	89 de                	mov    %ebx,%esi
  402194:	bf 01 00 00 00       	mov    $0x1,%edi
  402199:	e8 22 fd ff ff       	callq  401ec0 <notify_server>
  40219e:	e9 7c ff ff ff       	jmpq   40211f <validate+0x41>

00000000004021a3 <fail>:
  4021a3:	48 83 ec 08          	sub    $0x8,%rsp
  4021a7:	83 3d 5a 53 00 00 00 	cmpl   $0x0,0x535a(%rip)        # 407508 <is_checker>
  4021ae:	75 11                	jne    4021c1 <fail+0x1e>
  4021b0:	89 fe                	mov    %edi,%esi
  4021b2:	bf 00 00 00 00       	mov    $0x0,%edi
  4021b7:	e8 04 fd ff ff       	callq  401ec0 <notify_server>
  4021bc:	48 83 c4 08          	add    $0x8,%rsp
  4021c0:	c3                   	retq   
  4021c1:	b8 00 00 00 00       	mov    $0x0,%eax
  4021c6:	e8 6e fc ff ff       	callq  401e39 <check_fail>

00000000004021cb <bushandler>:
  4021cb:	48 83 ec 08          	sub    $0x8,%rsp
  4021cf:	83 3d 32 53 00 00 00 	cmpl   $0x0,0x5332(%rip)        # 407508 <is_checker>
  4021d6:	74 14                	je     4021ec <bushandler+0x21>
  4021d8:	bf 55 44 40 00       	mov    $0x404455,%edi
  4021dd:	e8 8e ee ff ff       	callq  401070 <puts@plt>
  4021e2:	b8 00 00 00 00       	mov    $0x0,%eax
  4021e7:	e8 4d fc ff ff       	callq  401e39 <check_fail>
  4021ec:	bf c0 45 40 00       	mov    $0x4045c0,%edi
  4021f1:	e8 7a ee ff ff       	callq  401070 <puts@plt>
  4021f6:	bf 5f 44 40 00       	mov    $0x40445f,%edi
  4021fb:	e8 70 ee ff ff       	callq  401070 <puts@plt>
  402200:	be 00 00 00 00       	mov    $0x0,%esi
  402205:	bf 00 00 00 00       	mov    $0x0,%edi
  40220a:	e8 b1 fc ff ff       	callq  401ec0 <notify_server>
  40220f:	bf 01 00 00 00       	mov    $0x1,%edi
  402214:	e8 a7 ef ff ff       	callq  4011c0 <exit@plt>

0000000000402219 <seghandler>:
  402219:	48 83 ec 08          	sub    $0x8,%rsp
  40221d:	83 3d e4 52 00 00 00 	cmpl   $0x0,0x52e4(%rip)        # 407508 <is_checker>
  402224:	74 14                	je     40223a <seghandler+0x21>
  402226:	bf 75 44 40 00       	mov    $0x404475,%edi
  40222b:	e8 40 ee ff ff       	callq  401070 <puts@plt>
  402230:	b8 00 00 00 00       	mov    $0x0,%eax
  402235:	e8 ff fb ff ff       	callq  401e39 <check_fail>
  40223a:	bf e0 45 40 00       	mov    $0x4045e0,%edi
  40223f:	e8 2c ee ff ff       	callq  401070 <puts@plt>
  402244:	bf 5f 44 40 00       	mov    $0x40445f,%edi
  402249:	e8 22 ee ff ff       	callq  401070 <puts@plt>
  40224e:	be 00 00 00 00       	mov    $0x0,%esi
  402253:	bf 00 00 00 00       	mov    $0x0,%edi
  402258:	e8 63 fc ff ff       	callq  401ec0 <notify_server>
  40225d:	bf 01 00 00 00       	mov    $0x1,%edi
  402262:	e8 59 ef ff ff       	callq  4011c0 <exit@plt>

0000000000402267 <illegalhandler>:
  402267:	48 83 ec 08          	sub    $0x8,%rsp
  40226b:	83 3d 96 52 00 00 00 	cmpl   $0x0,0x5296(%rip)        # 407508 <is_checker>
  402272:	74 14                	je     402288 <illegalhandler+0x21>
  402274:	bf 88 44 40 00       	mov    $0x404488,%edi
  402279:	e8 f2 ed ff ff       	callq  401070 <puts@plt>
  40227e:	b8 00 00 00 00       	mov    $0x0,%eax
  402283:	e8 b1 fb ff ff       	callq  401e39 <check_fail>
  402288:	bf 08 46 40 00       	mov    $0x404608,%edi
  40228d:	e8 de ed ff ff       	callq  401070 <puts@plt>
  402292:	bf 5f 44 40 00       	mov    $0x40445f,%edi
  402297:	e8 d4 ed ff ff       	callq  401070 <puts@plt>
  40229c:	be 00 00 00 00       	mov    $0x0,%esi
  4022a1:	bf 00 00 00 00       	mov    $0x0,%edi
  4022a6:	e8 15 fc ff ff       	callq  401ec0 <notify_server>
  4022ab:	bf 01 00 00 00       	mov    $0x1,%edi
  4022b0:	e8 0b ef ff ff       	callq  4011c0 <exit@plt>

00000000004022b5 <sigalrmhandler>:
  4022b5:	48 83 ec 08          	sub    $0x8,%rsp
  4022b9:	83 3d 48 52 00 00 00 	cmpl   $0x0,0x5248(%rip)        # 407508 <is_checker>
  4022c0:	74 14                	je     4022d6 <sigalrmhandler+0x21>
  4022c2:	bf 9c 44 40 00       	mov    $0x40449c,%edi
  4022c7:	e8 a4 ed ff ff       	callq  401070 <puts@plt>
  4022cc:	b8 00 00 00 00       	mov    $0x0,%eax
  4022d1:	e8 63 fb ff ff       	callq  401e39 <check_fail>
  4022d6:	ba 05 00 00 00       	mov    $0x5,%edx
  4022db:	be 38 46 40 00       	mov    $0x404638,%esi
  4022e0:	bf 01 00 00 00       	mov    $0x1,%edi
  4022e5:	b8 00 00 00 00       	mov    $0x0,%eax
  4022ea:	e8 91 ee ff ff       	callq  401180 <__printf_chk@plt>
  4022ef:	be 00 00 00 00       	mov    $0x0,%esi
  4022f4:	bf 00 00 00 00       	mov    $0x0,%edi
  4022f9:	e8 c2 fb ff ff       	callq  401ec0 <notify_server>
  4022fe:	bf 01 00 00 00       	mov    $0x1,%edi
  402303:	e8 b8 ee ff ff       	callq  4011c0 <exit@plt>

0000000000402308 <launch>:
  402308:	55                   	push   %rbp
  402309:	48 89 e5             	mov    %rsp,%rbp
  40230c:	48 83 ec 10          	sub    $0x10,%rsp
  402310:	48 89 fa             	mov    %rdi,%rdx
  402313:	64 48 8b 04 25 28 00 	mov    %fs:0x28,%rax
  40231a:	00 00 
  40231c:	48 89 45 f8          	mov    %rax,-0x8(%rbp)
  402320:	31 c0                	xor    %eax,%eax
  402322:	48 8d 47 1e          	lea    0x1e(%rdi),%rax
  402326:	48 83 e0 f0          	and    $0xfffffffffffffff0,%rax
  40232a:	48 29 c4             	sub    %rax,%rsp
  40232d:	48 8d 7c 24 0f       	lea    0xf(%rsp),%rdi
  402332:	48 83 e7 f0          	and    $0xfffffffffffffff0,%rdi
  402336:	be f4 00 00 00       	mov    $0xf4,%esi
  40233b:	e8 70 ed ff ff       	callq  4010b0 <memset@plt>
  402340:	48 8b 05 59 51 00 00 	mov    0x5159(%rip),%rax        # 4074a0 <stdin@@GLIBC_2.2.5>
  402347:	48 39 05 a2 51 00 00 	cmp    %rax,0x51a2(%rip)        # 4074f0 <infile>
  40234e:	74 38                	je     402388 <launch+0x80>
  402350:	c7 05 a2 51 00 00 00 	movl   $0x0,0x51a2(%rip)        # 4074fc <vlevel>
  402357:	00 00 00 
  40235a:	b8 00 00 00 00       	mov    $0x0,%eax
  40235f:	e8 21 f9 ff ff       	callq  401c85 <test>
  402364:	83 3d 9d 51 00 00 00 	cmpl   $0x0,0x519d(%rip)        # 407508 <is_checker>
  40236b:	75 31                	jne    40239e <launch+0x96>
  40236d:	bf bc 44 40 00       	mov    $0x4044bc,%edi
  402372:	e8 f9 ec ff ff       	callq  401070 <puts@plt>
  402377:	48 8b 45 f8          	mov    -0x8(%rbp),%rax
  40237b:	64 48 33 04 25 28 00 	xor    %fs:0x28,%rax
  402382:	00 00 
  402384:	75 2c                	jne    4023b2 <launch+0xaa>
  402386:	c9                   	leaveq 
  402387:	c3                   	retq   
  402388:	be a4 44 40 00       	mov    $0x4044a4,%esi
  40238d:	bf 01 00 00 00       	mov    $0x1,%edi
  402392:	b8 00 00 00 00       	mov    $0x0,%eax
  402397:	e8 e4 ed ff ff       	callq  401180 <__printf_chk@plt>
  40239c:	eb b2                	jmp    402350 <launch+0x48>
  40239e:	bf b1 44 40 00       	mov    $0x4044b1,%edi
  4023a3:	e8 c8 ec ff ff       	callq  401070 <puts@plt>
  4023a8:	b8 00 00 00 00       	mov    $0x0,%eax
  4023ad:	e8 87 fa ff ff       	callq  401e39 <check_fail>
  4023b2:	e8 d9 ec ff ff       	callq  401090 <__stack_chk_fail@plt>

00000000004023b7 <stable_launch>:
  4023b7:	53                   	push   %rbx
  4023b8:	48 89 3d 29 51 00 00 	mov    %rdi,0x5129(%rip)        # 4074e8 <global_offset>
  4023bf:	41 b9 00 00 00 00    	mov    $0x0,%r9d
  4023c5:	41 b8 00 00 00 00    	mov    $0x0,%r8d
  4023cb:	b9 32 00 00 00       	mov    $0x32,%ecx
  4023d0:	ba 07 00 00 00       	mov    $0x7,%edx
  4023d5:	be 00 00 10 00       	mov    $0x100000,%esi
  4023da:	bf 00 60 58 55       	mov    $0x55586000,%edi
  4023df:	e8 bc ec ff ff       	callq  4010a0 <mmap@plt>
  4023e4:	48 89 c3             	mov    %rax,%rbx
  4023e7:	48 3d 00 60 58 55    	cmp    $0x55586000,%rax
  4023ed:	75 43                	jne    402432 <stable_launch+0x7b>
  4023ef:	48 8d 90 f8 ff 0f 00 	lea    0xffff8(%rax),%rdx
  4023f6:	48 89 15 33 5d 00 00 	mov    %rdx,0x5d33(%rip)        # 408130 <stack_top>
  4023fd:	48 89 e0             	mov    %rsp,%rax
  402400:	48 89 d4             	mov    %rdx,%rsp
  402403:	48 89 c2             	mov    %rax,%rdx
  402406:	48 89 15 d3 50 00 00 	mov    %rdx,0x50d3(%rip)        # 4074e0 <global_save_stack>
  40240d:	48 8b 3d d4 50 00 00 	mov    0x50d4(%rip),%rdi        # 4074e8 <global_offset>
  402414:	e8 ef fe ff ff       	callq  402308 <launch>
  402419:	48 8b 05 c0 50 00 00 	mov    0x50c0(%rip),%rax        # 4074e0 <global_save_stack>
  402420:	48 89 c4             	mov    %rax,%rsp
  402423:	be 00 00 10 00       	mov    $0x100000,%esi
  402428:	48 89 df             	mov    %rbx,%rdi
  40242b:	e8 40 ed ff ff       	callq  401170 <munmap@plt>
  402430:	5b                   	pop    %rbx
  402431:	c3                   	retq   
  402432:	be 00 00 10 00       	mov    $0x100000,%esi
  402437:	48 89 c7             	mov    %rax,%rdi
  40243a:	e8 31 ed ff ff       	callq  401170 <munmap@plt>
  40243f:	b9 00 60 58 55       	mov    $0x55586000,%ecx
  402444:	ba 70 46 40 00       	mov    $0x404670,%edx
  402449:	be 01 00 00 00       	mov    $0x1,%esi
  40244e:	48 8b 3d 6b 50 00 00 	mov    0x506b(%rip),%rdi        # 4074c0 <stderr@@GLIBC_2.2.5>
  402455:	b8 00 00 00 00       	mov    $0x0,%eax
  40245a:	e8 81 ed ff ff       	callq  4011e0 <__fprintf_chk@plt>
  40245f:	bf 01 00 00 00       	mov    $0x1,%edi
  402464:	e8 57 ed ff ff       	callq  4011c0 <exit@plt>

0000000000402469 <rio_readinitb>:
  402469:	89 37                	mov    %esi,(%rdi)
  40246b:	c7 47 04 00 00 00 00 	movl   $0x0,0x4(%rdi)
  402472:	48 8d 47 10          	lea    0x10(%rdi),%rax
  402476:	48 89 47 08          	mov    %rax,0x8(%rdi)
  40247a:	c3                   	retq   

000000000040247b <sigalrm_handler>:
  40247b:	48 83 ec 08          	sub    $0x8,%rsp
  40247f:	b9 00 00 00 00       	mov    $0x0,%ecx
  402484:	ba b0 46 40 00       	mov    $0x4046b0,%edx
  402489:	be 01 00 00 00       	mov    $0x1,%esi
  40248e:	48 8b 3d 2b 50 00 00 	mov    0x502b(%rip),%rdi        # 4074c0 <stderr@@GLIBC_2.2.5>
  402495:	b8 00 00 00 00       	mov    $0x0,%eax
  40249a:	e8 41 ed ff ff       	callq  4011e0 <__fprintf_chk@plt>
  40249f:	bf 01 00 00 00       	mov    $0x1,%edi
  4024a4:	e8 17 ed ff ff       	callq  4011c0 <exit@plt>

00000000004024a9 <rio_writen>:
  4024a9:	41 55                	push   %r13
  4024ab:	41 54                	push   %r12
  4024ad:	55                   	push   %rbp
  4024ae:	53                   	push   %rbx
  4024af:	48 83 ec 08          	sub    $0x8,%rsp
  4024b3:	41 89 fc             	mov    %edi,%r12d
  4024b6:	48 89 f5             	mov    %rsi,%rbp
  4024b9:	49 89 d5             	mov    %rdx,%r13
  4024bc:	48 89 d3             	mov    %rdx,%rbx
  4024bf:	eb 06                	jmp    4024c7 <rio_writen+0x1e>
  4024c1:	48 29 c3             	sub    %rax,%rbx
  4024c4:	48 01 c5             	add    %rax,%rbp
  4024c7:	48 85 db             	test   %rbx,%rbx
  4024ca:	74 24                	je     4024f0 <rio_writen+0x47>
  4024cc:	48 89 da             	mov    %rbx,%rdx
  4024cf:	48 89 ee             	mov    %rbp,%rsi
  4024d2:	44 89 e7             	mov    %r12d,%edi
  4024d5:	e8 a6 eb ff ff       	callq  401080 <write@plt>
  4024da:	48 85 c0             	test   %rax,%rax
  4024dd:	7f e2                	jg     4024c1 <rio_writen+0x18>
  4024df:	e8 4c eb ff ff       	callq  401030 <__errno_location@plt>
  4024e4:	83 38 04             	cmpl   $0x4,(%rax)
  4024e7:	75 15                	jne    4024fe <rio_writen+0x55>
  4024e9:	b8 00 00 00 00       	mov    $0x0,%eax
  4024ee:	eb d1                	jmp    4024c1 <rio_writen+0x18>
  4024f0:	4c 89 e8             	mov    %r13,%rax
  4024f3:	48 83 c4 08          	add    $0x8,%rsp
  4024f7:	5b                   	pop    %rbx
  4024f8:	5d                   	pop    %rbp
  4024f9:	41 5c                	pop    %r12
  4024fb:	41 5d                	pop    %r13
  4024fd:	c3                   	retq   
  4024fe:	48 c7 c0 ff ff ff ff 	mov    $0xffffffffffffffff,%rax
  402505:	eb ec                	jmp    4024f3 <rio_writen+0x4a>

0000000000402507 <rio_read>:
  402507:	41 55                	push   %r13
  402509:	41 54                	push   %r12
  40250b:	55                   	push   %rbp
  40250c:	53                   	push   %rbx
  40250d:	48 83 ec 08          	sub    $0x8,%rsp
  402511:	48 89 fb             	mov    %rdi,%rbx
  402514:	49 89 f5             	mov    %rsi,%r13
  402517:	49 89 d4             	mov    %rdx,%r12
  40251a:	eb 0a                	jmp    402526 <rio_read+0x1f>
  40251c:	e8 0f eb ff ff       	callq  401030 <__errno_location@plt>
  402521:	83 38 04             	cmpl   $0x4,(%rax)
  402524:	75 5c                	jne    402582 <rio_read+0x7b>
  402526:	8b 6b 04             	mov    0x4(%rbx),%ebp
  402529:	85 ed                	test   %ebp,%ebp
  40252b:	7f 24                	jg     402551 <rio_read+0x4a>
  40252d:	48 8d 6b 10          	lea    0x10(%rbx),%rbp
  402531:	8b 3b                	mov    (%rbx),%edi
  402533:	ba 00 20 00 00       	mov    $0x2000,%edx
  402538:	48 89 ee             	mov    %rbp,%rsi
  40253b:	e8 a0 eb ff ff       	callq  4010e0 <read@plt>
  402540:	89 43 04             	mov    %eax,0x4(%rbx)
  402543:	85 c0                	test   %eax,%eax
  402545:	78 d5                	js     40251c <rio_read+0x15>
  402547:	85 c0                	test   %eax,%eax
  402549:	74 40                	je     40258b <rio_read+0x84>
  40254b:	48 89 6b 08          	mov    %rbp,0x8(%rbx)
  40254f:	eb d5                	jmp    402526 <rio_read+0x1f>
  402551:	89 e8                	mov    %ebp,%eax
  402553:	4c 39 e0             	cmp    %r12,%rax
  402556:	72 03                	jb     40255b <rio_read+0x54>
  402558:	44 89 e5             	mov    %r12d,%ebp
  40255b:	4c 63 e5             	movslq %ebp,%r12
  40255e:	48 8b 73 08          	mov    0x8(%rbx),%rsi
  402562:	4c 89 e2             	mov    %r12,%rdx
  402565:	4c 89 ef             	mov    %r13,%rdi
  402568:	e8 c3 eb ff ff       	callq  401130 <memcpy@plt>
  40256d:	4c 01 63 08          	add    %r12,0x8(%rbx)
  402571:	29 6b 04             	sub    %ebp,0x4(%rbx)
  402574:	4c 89 e0             	mov    %r12,%rax
  402577:	48 83 c4 08          	add    $0x8,%rsp
  40257b:	5b                   	pop    %rbx
  40257c:	5d                   	pop    %rbp
  40257d:	41 5c                	pop    %r12
  40257f:	41 5d                	pop    %r13
  402581:	c3                   	retq   
  402582:	48 c7 c0 ff ff ff ff 	mov    $0xffffffffffffffff,%rax
  402589:	eb ec                	jmp    402577 <rio_read+0x70>
  40258b:	b8 00 00 00 00       	mov    $0x0,%eax
  402590:	eb e5                	jmp    402577 <rio_read+0x70>

0000000000402592 <rio_readlineb>:
  402592:	41 55                	push   %r13
  402594:	41 54                	push   %r12
  402596:	55                   	push   %rbp
  402597:	53                   	push   %rbx
  402598:	48 83 ec 18          	sub    $0x18,%rsp
  40259c:	49 89 fd             	mov    %rdi,%r13
  40259f:	48 89 f5             	mov    %rsi,%rbp
  4025a2:	49 89 d4             	mov    %rdx,%r12
  4025a5:	64 48 8b 04 25 28 00 	mov    %fs:0x28,%rax
  4025ac:	00 00 
  4025ae:	48 89 44 24 08       	mov    %rax,0x8(%rsp)
  4025b3:	31 c0                	xor    %eax,%eax
  4025b5:	bb 01 00 00 00       	mov    $0x1,%ebx
  4025ba:	4c 39 e3             	cmp    %r12,%rbx
  4025bd:	73 47                	jae    402606 <rio_readlineb+0x74>
  4025bf:	ba 01 00 00 00       	mov    $0x1,%edx
  4025c4:	48 8d 74 24 07       	lea    0x7(%rsp),%rsi
  4025c9:	4c 89 ef             	mov    %r13,%rdi
  4025cc:	e8 36 ff ff ff       	callq  402507 <rio_read>
  4025d1:	83 f8 01             	cmp    $0x1,%eax
  4025d4:	75 1c                	jne    4025f2 <rio_readlineb+0x60>
  4025d6:	48 8d 45 01          	lea    0x1(%rbp),%rax
  4025da:	0f b6 54 24 07       	movzbl 0x7(%rsp),%edx
  4025df:	88 55 00             	mov    %dl,0x0(%rbp)
  4025e2:	80 7c 24 07 0a       	cmpb   $0xa,0x7(%rsp)
  4025e7:	74 1a                	je     402603 <rio_readlineb+0x71>
  4025e9:	48 83 c3 01          	add    $0x1,%rbx
  4025ed:	48 89 c5             	mov    %rax,%rbp
  4025f0:	eb c8                	jmp    4025ba <rio_readlineb+0x28>
  4025f2:	85 c0                	test   %eax,%eax
  4025f4:	75 32                	jne    402628 <rio_readlineb+0x96>
  4025f6:	48 83 fb 01          	cmp    $0x1,%rbx
  4025fa:	75 0a                	jne    402606 <rio_readlineb+0x74>
  4025fc:	b8 00 00 00 00       	mov    $0x0,%eax
  402601:	eb 0a                	jmp    40260d <rio_readlineb+0x7b>
  402603:	48 89 c5             	mov    %rax,%rbp
  402606:	c6 45 00 00          	movb   $0x0,0x0(%rbp)
  40260a:	48 89 d8             	mov    %rbx,%rax
  40260d:	48 8b 4c 24 08       	mov    0x8(%rsp),%rcx
  402612:	64 48 33 0c 25 28 00 	xor    %fs:0x28,%rcx
  402619:	00 00 
  40261b:	75 14                	jne    402631 <rio_readlineb+0x9f>
  40261d:	48 83 c4 18          	add    $0x18,%rsp
  402621:	5b                   	pop    %rbx
  402622:	5d                   	pop    %rbp
  402623:	41 5c                	pop    %r12
  402625:	41 5d                	pop    %r13
  402627:	c3                   	retq   
  402628:	48 c7 c0 ff ff ff ff 	mov    $0xffffffffffffffff,%rax
  40262f:	eb dc                	jmp    40260d <rio_readlineb+0x7b>
  402631:	e8 5a ea ff ff       	callq  401090 <__stack_chk_fail@plt>

0000000000402636 <urlencode>:
  402636:	41 54                	push   %r12
  402638:	55                   	push   %rbp
  402639:	53                   	push   %rbx
  40263a:	48 83 ec 10          	sub    $0x10,%rsp
  40263e:	48 89 fb             	mov    %rdi,%rbx
  402641:	48 89 f5             	mov    %rsi,%rbp
  402644:	64 48 8b 04 25 28 00 	mov    %fs:0x28,%rax
  40264b:	00 00 
  40264d:	48 89 44 24 08       	mov    %rax,0x8(%rsp)
  402652:	31 c0                	xor    %eax,%eax
  402654:	48 c7 c1 ff ff ff ff 	mov    $0xffffffffffffffff,%rcx
  40265b:	f2 ae                	repnz scas %es:(%rdi),%al
  40265d:	48 89 ce             	mov    %rcx,%rsi
  402660:	48 f7 d6             	not    %rsi
  402663:	8d 46 ff             	lea    -0x1(%rsi),%eax
  402666:	eb 0f                	jmp    402677 <urlencode+0x41>
  402668:	44 88 45 00          	mov    %r8b,0x0(%rbp)
  40266c:	48 8d 6d 01          	lea    0x1(%rbp),%rbp
  402670:	48 83 c3 01          	add    $0x1,%rbx
  402674:	44 89 e0             	mov    %r12d,%eax
  402677:	44 8d 60 ff          	lea    -0x1(%rax),%r12d
  40267b:	85 c0                	test   %eax,%eax
  40267d:	0f 84 a6 00 00 00    	je     402729 <urlencode+0xf3>
  402683:	44 0f b6 03          	movzbl (%rbx),%r8d
  402687:	41 80 f8 2a          	cmp    $0x2a,%r8b
  40268b:	0f 94 c2             	sete   %dl
  40268e:	41 80 f8 2d          	cmp    $0x2d,%r8b
  402692:	0f 94 c0             	sete   %al
  402695:	08 c2                	or     %al,%dl
  402697:	75 cf                	jne    402668 <urlencode+0x32>
  402699:	41 80 f8 2e          	cmp    $0x2e,%r8b
  40269d:	74 c9                	je     402668 <urlencode+0x32>
  40269f:	41 80 f8 5f          	cmp    $0x5f,%r8b
  4026a3:	74 c3                	je     402668 <urlencode+0x32>
  4026a5:	41 8d 40 d0          	lea    -0x30(%r8),%eax
  4026a9:	3c 09                	cmp    $0x9,%al
  4026ab:	76 bb                	jbe    402668 <urlencode+0x32>
  4026ad:	41 8d 40 bf          	lea    -0x41(%r8),%eax
  4026b1:	3c 19                	cmp    $0x19,%al
  4026b3:	76 b3                	jbe    402668 <urlencode+0x32>
  4026b5:	41 8d 40 9f          	lea    -0x61(%r8),%eax
  4026b9:	3c 19                	cmp    $0x19,%al
  4026bb:	76 ab                	jbe    402668 <urlencode+0x32>
  4026bd:	41 80 f8 20          	cmp    $0x20,%r8b
  4026c1:	74 54                	je     402717 <urlencode+0xe1>
  4026c3:	41 8d 40 e0          	lea    -0x20(%r8),%eax
  4026c7:	3c 5f                	cmp    $0x5f,%al
  4026c9:	0f 96 c2             	setbe  %dl
  4026cc:	41 80 f8 09          	cmp    $0x9,%r8b
  4026d0:	0f 94 c0             	sete   %al
  4026d3:	08 c2                	or     %al,%dl
  4026d5:	74 4d                	je     402724 <urlencode+0xee>
  4026d7:	45 0f b6 c0          	movzbl %r8b,%r8d
  4026db:	b9 45 47 40 00       	mov    $0x404745,%ecx
  4026e0:	ba 08 00 00 00       	mov    $0x8,%edx
  4026e5:	be 01 00 00 00       	mov    $0x1,%esi
  4026ea:	48 89 e7             	mov    %rsp,%rdi
  4026ed:	b8 00 00 00 00       	mov    $0x0,%eax
  4026f2:	e8 09 eb ff ff       	callq  401200 <__sprintf_chk@plt>
  4026f7:	0f b6 04 24          	movzbl (%rsp),%eax
  4026fb:	88 45 00             	mov    %al,0x0(%rbp)
  4026fe:	0f b6 44 24 01       	movzbl 0x1(%rsp),%eax
  402703:	88 45 01             	mov    %al,0x1(%rbp)
  402706:	0f b6 44 24 02       	movzbl 0x2(%rsp),%eax
  40270b:	88 45 02             	mov    %al,0x2(%rbp)
  40270e:	48 8d 6d 03          	lea    0x3(%rbp),%rbp
  402712:	e9 59 ff ff ff       	jmpq   402670 <urlencode+0x3a>
  402717:	c6 45 00 2b          	movb   $0x2b,0x0(%rbp)
  40271b:	48 8d 6d 01          	lea    0x1(%rbp),%rbp
  40271f:	e9 4c ff ff ff       	jmpq   402670 <urlencode+0x3a>
  402724:	b8 ff ff ff ff       	mov    $0xffffffff,%eax
  402729:	48 8b 74 24 08       	mov    0x8(%rsp),%rsi
  40272e:	64 48 33 34 25 28 00 	xor    %fs:0x28,%rsi
  402735:	00 00 
  402737:	75 09                	jne    402742 <urlencode+0x10c>
  402739:	48 83 c4 10          	add    $0x10,%rsp
  40273d:	5b                   	pop    %rbx
  40273e:	5d                   	pop    %rbp
  40273f:	41 5c                	pop    %r12
  402741:	c3                   	retq   
  402742:	e8 49 e9 ff ff       	callq  401090 <__stack_chk_fail@plt>

0000000000402747 <submitr>:
  402747:	4c 8d 54 24 08       	lea    0x8(%rsp),%r10
  40274c:	48 83 e4 f0          	and    $0xfffffffffffffff0,%rsp
  402750:	41 ff 72 f8          	pushq  -0x8(%r10)
  402754:	55                   	push   %rbp
  402755:	48 89 e5             	mov    %rsp,%rbp
  402758:	41 57                	push   %r15
  40275a:	41 56                	push   %r14
  40275c:	41 55                	push   %r13
  40275e:	41 54                	push   %r12
  402760:	41 52                	push   %r10
  402762:	53                   	push   %rbx
  402763:	48 81 ec 60 a0 00 00 	sub    $0xa060,%rsp
  40276a:	49 89 fe             	mov    %rdi,%r14
  40276d:	89 b5 84 5f ff ff    	mov    %esi,-0xa07c(%rbp)
  402773:	49 89 d7             	mov    %rdx,%r15
  402776:	48 89 8d 88 5f ff ff 	mov    %rcx,-0xa078(%rbp)
  40277d:	4c 89 85 78 5f ff ff 	mov    %r8,-0xa088(%rbp)
  402784:	4d 89 cd             	mov    %r9,%r13
  402787:	4d 8b 22             	mov    (%r10),%r12
  40278a:	64 48 8b 04 25 28 00 	mov    %fs:0x28,%rax
  402791:	00 00 
  402793:	48 89 45 c8          	mov    %rax,-0x38(%rbp)
  402797:	31 c0                	xor    %eax,%eax
  402799:	c7 85 9c 5f ff ff 00 	movl   $0x0,-0xa064(%rbp)
  4027a0:	00 00 00 
  4027a3:	ba 00 00 00 00       	mov    $0x0,%edx
  4027a8:	be 01 00 00 00       	mov    $0x1,%esi
  4027ad:	bf 02 00 00 00       	mov    $0x2,%edi
  4027b2:	e8 59 ea ff ff       	callq  401210 <socket@plt>
  4027b7:	85 c0                	test   %eax,%eax
  4027b9:	0f 88 bf 02 00 00    	js     402a7e <submitr+0x337>
  4027bf:	89 c3                	mov    %eax,%ebx
  4027c1:	4c 89 f7             	mov    %r14,%rdi
  4027c4:	e8 37 e9 ff ff       	callq  401100 <gethostbyname@plt>
  4027c9:	48 85 c0             	test   %rax,%rax
  4027cc:	0f 84 ff 02 00 00    	je     402ad1 <submitr+0x38a>
  4027d2:	48 c7 85 a2 5f ff ff 	movq   $0x0,-0xa05e(%rbp)
  4027d9:	00 00 00 00 
  4027dd:	c7 85 aa 5f ff ff 00 	movl   $0x0,-0xa056(%rbp)
  4027e4:	00 00 00 
  4027e7:	66 c7 85 ae 5f ff ff 	movw   $0x0,-0xa052(%rbp)
  4027ee:	00 00 
  4027f0:	66 c7 85 a0 5f ff ff 	movw   $0x2,-0xa060(%rbp)
  4027f7:	02 00 
  4027f9:	48 63 50 14          	movslq 0x14(%rax),%rdx
  4027fd:	48 8b 40 18          	mov    0x18(%rax),%rax
  402801:	48 8b 30             	mov    (%rax),%rsi
  402804:	48 8d 85 a0 5f ff ff 	lea    -0xa060(%rbp),%rax
  40280b:	48 8d 78 04          	lea    0x4(%rax),%rdi
  40280f:	b9 0c 00 00 00       	mov    $0xc,%ecx
  402814:	e8 f7 e8 ff ff       	callq  401110 <__memmove_chk@plt>
  402819:	0f b7 85 84 5f ff ff 	movzwl -0xa07c(%rbp),%eax
  402820:	66 c1 c0 08          	rol    $0x8,%ax
  402824:	66 89 85 a2 5f ff ff 	mov    %ax,-0xa05e(%rbp)
  40282b:	ba 10 00 00 00       	mov    $0x10,%edx
  402830:	48 8d b5 a0 5f ff ff 	lea    -0xa060(%rbp),%rsi
  402837:	89 df                	mov    %ebx,%edi
  402839:	e8 92 e9 ff ff       	callq  4011d0 <connect@plt>
  40283e:	85 c0                	test   %eax,%eax
  402840:	0f 88 fd 02 00 00    	js     402b43 <submitr+0x3fc>
  402846:	48 c7 c6 ff ff ff ff 	mov    $0xffffffffffffffff,%rsi
  40284d:	b8 00 00 00 00       	mov    $0x0,%eax
  402852:	48 89 f1             	mov    %rsi,%rcx
  402855:	4c 89 ef             	mov    %r13,%rdi
  402858:	f2 ae                	repnz scas %es:(%rdi),%al
  40285a:	48 89 ca             	mov    %rcx,%rdx
  40285d:	48 f7 d2             	not    %rdx
  402860:	48 89 f1             	mov    %rsi,%rcx
  402863:	4c 89 ff             	mov    %r15,%rdi
  402866:	f2 ae                	repnz scas %es:(%rdi),%al
  402868:	48 f7 d1             	not    %rcx
  40286b:	49 89 c8             	mov    %rcx,%r8
  40286e:	48 89 f1             	mov    %rsi,%rcx
  402871:	48 8b bd 88 5f ff ff 	mov    -0xa078(%rbp),%rdi
  402878:	f2 ae                	repnz scas %es:(%rdi),%al
  40287a:	48 f7 d1             	not    %rcx
  40287d:	4d 8d 44 08 fe       	lea    -0x2(%r8,%rcx,1),%r8
  402882:	48 89 f1             	mov    %rsi,%rcx
  402885:	48 8b bd 78 5f ff ff 	mov    -0xa088(%rbp),%rdi
  40288c:	f2 ae                	repnz scas %es:(%rdi),%al
  40288e:	48 89 c8             	mov    %rcx,%rax
  402891:	48 f7 d0             	not    %rax
  402894:	49 8d 4c 00 ff       	lea    -0x1(%r8,%rax,1),%rcx
  402899:	48 8d 44 52 fd       	lea    -0x3(%rdx,%rdx,2),%rax
  40289e:	48 8d 84 01 80 00 00 	lea    0x80(%rcx,%rax,1),%rax
  4028a5:	00 
  4028a6:	48 3d 00 20 00 00    	cmp    $0x2000,%rax
  4028ac:	0f 87 f4 02 00 00    	ja     402ba6 <submitr+0x45f>
  4028b2:	48 8d b5 c0 9f ff ff 	lea    -0x6040(%rbp),%rsi
  4028b9:	b9 00 04 00 00       	mov    $0x400,%ecx
  4028be:	b8 00 00 00 00       	mov    $0x0,%eax
  4028c3:	48 89 f7             	mov    %rsi,%rdi
  4028c6:	f3 48 ab             	rep stos %rax,%es:(%rdi)
  4028c9:	4c 89 ef             	mov    %r13,%rdi
  4028cc:	e8 65 fd ff ff       	callq  402636 <urlencode>
  4028d1:	85 c0                	test   %eax,%eax
  4028d3:	0f 88 46 03 00 00    	js     402c1f <submitr+0x4d8>
  4028d9:	4c 8d ad c0 7f ff ff 	lea    -0x8040(%rbp),%r13
  4028e0:	41 56                	push   %r14
  4028e2:	48 8d 85 c0 9f ff ff 	lea    -0x6040(%rbp),%rax
  4028e9:	50                   	push   %rax
  4028ea:	4d 89 f9             	mov    %r15,%r9
  4028ed:	4c 8b 85 88 5f ff ff 	mov    -0xa078(%rbp),%r8
  4028f4:	b9 d8 46 40 00       	mov    $0x4046d8,%ecx
  4028f9:	ba 00 20 00 00       	mov    $0x2000,%edx
  4028fe:	be 01 00 00 00       	mov    $0x1,%esi
  402903:	4c 89 ef             	mov    %r13,%rdi
  402906:	b8 00 00 00 00       	mov    $0x0,%eax
  40290b:	e8 f0 e8 ff ff       	callq  401200 <__sprintf_chk@plt>
  402910:	48 c7 c1 ff ff ff ff 	mov    $0xffffffffffffffff,%rcx
  402917:	b8 00 00 00 00       	mov    $0x0,%eax
  40291c:	4c 89 ef             	mov    %r13,%rdi
  40291f:	f2 ae                	repnz scas %es:(%rdi),%al
  402921:	48 89 ca             	mov    %rcx,%rdx
  402924:	48 f7 d2             	not    %rdx
  402927:	48 8d 52 ff          	lea    -0x1(%rdx),%rdx
  40292b:	4c 89 ee             	mov    %r13,%rsi
  40292e:	89 df                	mov    %ebx,%edi
  402930:	e8 74 fb ff ff       	callq  4024a9 <rio_writen>
  402935:	48 83 c4 10          	add    $0x10,%rsp
  402939:	48 85 c0             	test   %rax,%rax
  40293c:	0f 88 73 03 00 00    	js     402cb5 <submitr+0x56e>
  402942:	89 de                	mov    %ebx,%esi
  402944:	48 8d bd b0 5f ff ff 	lea    -0xa050(%rbp),%rdi
  40294b:	e8 19 fb ff ff       	callq  402469 <rio_readinitb>
  402950:	ba 00 20 00 00       	mov    $0x2000,%edx
  402955:	48 8d b5 c0 7f ff ff 	lea    -0x8040(%rbp),%rsi
  40295c:	48 8d bd b0 5f ff ff 	lea    -0xa050(%rbp),%rdi
  402963:	e8 2a fc ff ff       	callq  402592 <rio_readlineb>
  402968:	48 85 c0             	test   %rax,%rax
  40296b:	0f 8e bc 03 00 00    	jle    402d2d <submitr+0x5e6>
  402971:	4c 8d 85 c0 df ff ff 	lea    -0x2040(%rbp),%r8
  402978:	48 8d 8d 9c 5f ff ff 	lea    -0xa064(%rbp),%rcx
  40297f:	48 8d 95 c0 bf ff ff 	lea    -0x4040(%rbp),%rdx
  402986:	be 4c 47 40 00       	mov    $0x40474c,%esi
  40298b:	48 8d bd c0 7f ff ff 	lea    -0x8040(%rbp),%rdi
  402992:	b8 00 00 00 00       	mov    $0x0,%eax
  402997:	e8 c4 e7 ff ff       	callq  401160 <__isoc99_sscanf@plt>
  40299c:	48 8d b5 c0 7f ff ff 	lea    -0x8040(%rbp),%rsi
  4029a3:	bf 63 47 40 00       	mov    $0x404763,%edi
  4029a8:	b9 03 00 00 00       	mov    $0x3,%ecx
  4029ad:	f3 a6                	repz cmpsb %es:(%rdi),%ds:(%rsi)
  4029af:	0f 97 c0             	seta   %al
  4029b2:	1c 00                	sbb    $0x0,%al
  4029b4:	84 c0                	test   %al,%al
  4029b6:	0f 84 f9 03 00 00    	je     402db5 <submitr+0x66e>
  4029bc:	ba 00 20 00 00       	mov    $0x2000,%edx
  4029c1:	48 8d b5 c0 7f ff ff 	lea    -0x8040(%rbp),%rsi
  4029c8:	48 8d bd b0 5f ff ff 	lea    -0xa050(%rbp),%rdi
  4029cf:	e8 be fb ff ff       	callq  402592 <rio_readlineb>
  4029d4:	48 85 c0             	test   %rax,%rax
  4029d7:	7f c3                	jg     40299c <submitr+0x255>
  4029d9:	48 b8 45 72 72 6f 72 	movabs $0x43203a726f727245,%rax
  4029e0:	3a 20 43 
  4029e3:	48 ba 6c 69 65 6e 74 	movabs $0x6e7520746e65696c,%rdx
  4029ea:	20 75 6e 
  4029ed:	49 89 04 24          	mov    %rax,(%r12)
  4029f1:	49 89 54 24 08       	mov    %rdx,0x8(%r12)
  4029f6:	48 b8 61 62 6c 65 20 	movabs $0x206f7420656c6261,%rax
  4029fd:	74 6f 20 
  402a00:	48 ba 72 65 61 64 20 	movabs $0x6165682064616572,%rdx
  402a07:	68 65 61 
  402a0a:	49 89 44 24 10       	mov    %rax,0x10(%r12)
  402a0f:	49 89 54 24 18       	mov    %rdx,0x18(%r12)
  402a14:	48 b8 64 65 72 73 20 	movabs $0x6f72662073726564,%rax
  402a1b:	66 72 6f 
  402a1e:	48 ba 6d 20 74 68 65 	movabs $0x657220656874206d,%rdx
  402a25:	20 72 65 
  402a28:	49 89 44 24 20       	mov    %rax,0x20(%r12)
  402a2d:	49 89 54 24 28       	mov    %rdx,0x28(%r12)
  402a32:	48 b8 73 75 6c 74 20 	movabs $0x72657320746c7573,%rax
  402a39:	73 65 72 
  402a3c:	49 89 44 24 30       	mov    %rax,0x30(%r12)
  402a41:	41 c7 44 24 38 76 65 	movl   $0x726576,0x38(%r12)
  402a48:	72 00 
  402a4a:	89 df                	mov    %ebx,%edi
  402a4c:	e8 7f e6 ff ff       	callq  4010d0 <close@plt>
  402a51:	b8 ff ff ff ff       	mov    $0xffffffff,%eax
  402a56:	48 8b 5d c8          	mov    -0x38(%rbp),%rbx
  402a5a:	64 48 33 1c 25 28 00 	xor    %fs:0x28,%rbx
  402a61:	00 00 
  402a63:	0f 85 c4 04 00 00    	jne    402f2d <submitr+0x7e6>
  402a69:	48 8d 65 d0          	lea    -0x30(%rbp),%rsp
  402a6d:	5b                   	pop    %rbx
  402a6e:	41 5a                	pop    %r10
  402a70:	41 5c                	pop    %r12
  402a72:	41 5d                	pop    %r13
  402a74:	41 5e                	pop    %r14
  402a76:	41 5f                	pop    %r15
  402a78:	5d                   	pop    %rbp
  402a79:	49 8d 62 f8          	lea    -0x8(%r10),%rsp
  402a7d:	c3                   	retq   
  402a7e:	48 b8 45 72 72 6f 72 	movabs $0x43203a726f727245,%rax
  402a85:	3a 20 43 
  402a88:	48 ba 6c 69 65 6e 74 	movabs $0x6e7520746e65696c,%rdx
  402a8f:	20 75 6e 
  402a92:	49 89 04 24          	mov    %rax,(%r12)
  402a96:	49 89 54 24 08       	mov    %rdx,0x8(%r12)
  402a9b:	48 b8 61 62 6c 65 20 	movabs $0x206f7420656c6261,%rax
  402aa2:	74 6f 20 
  402aa5:	48 ba 63 72 65 61 74 	movabs $0x7320657461657263,%rdx
  402aac:	65 20 73 
  402aaf:	49 89 44 24 10       	mov    %rax,0x10(%r12)
  402ab4:	49 89 54 24 18       	mov    %rdx,0x18(%r12)
  402ab9:	41 c7 44 24 20 6f 63 	movl   $0x656b636f,0x20(%r12)
  402ac0:	6b 65 
  402ac2:	66 41 c7 44 24 24 74 	movw   $0x74,0x24(%r12)
  402ac9:	00 
  402aca:	b8 ff ff ff ff       	mov    $0xffffffff,%eax
  402acf:	eb 85                	jmp    402a56 <submitr+0x30f>
  402ad1:	48 b8 45 72 72 6f 72 	movabs $0x44203a726f727245,%rax
  402ad8:	3a 20 44 
  402adb:	48 ba 4e 53 20 69 73 	movabs $0x6e7520736920534e,%rdx
  402ae2:	20 75 6e 
  402ae5:	49 89 04 24          	mov    %rax,(%r12)
  402ae9:	49 89 54 24 08       	mov    %rdx,0x8(%r12)
  402aee:	48 b8 61 62 6c 65 20 	movabs $0x206f7420656c6261,%rax
  402af5:	74 6f 20 
  402af8:	48 ba 72 65 73 6f 6c 	movabs $0x2065766c6f736572,%rdx
  402aff:	76 65 20 
  402b02:	49 89 44 24 10       	mov    %rax,0x10(%r12)
  402b07:	49 89 54 24 18       	mov    %rdx,0x18(%r12)
  402b0c:	48 b8 73 65 72 76 65 	movabs $0x6120726576726573,%rax
  402b13:	72 20 61 
  402b16:	49 89 44 24 20       	mov    %rax,0x20(%r12)
  402b1b:	41 c7 44 24 28 64 64 	movl   $0x65726464,0x28(%r12)
  402b22:	72 65 
  402b24:	66 41 c7 44 24 2c 73 	movw   $0x7373,0x2c(%r12)
  402b2b:	73 
  402b2c:	41 c6 44 24 2e 00    	movb   $0x0,0x2e(%r12)
  402b32:	89 df                	mov    %ebx,%edi
  402b34:	e8 97 e5 ff ff       	callq  4010d0 <close@plt>
  402b39:	b8 ff ff ff ff       	mov    $0xffffffff,%eax
  402b3e:	e9 13 ff ff ff       	jmpq   402a56 <submitr+0x30f>
  402b43:	48 b8 45 72 72 6f 72 	movabs $0x55203a726f727245,%rax
  402b4a:	3a 20 55 
  402b4d:	48 ba 6e 61 62 6c 65 	movabs $0x6f7420656c62616e,%rdx
  402b54:	20 74 6f 
  402b57:	49 89 04 24          	mov    %rax,(%r12)
  402b5b:	49 89 54 24 08       	mov    %rdx,0x8(%r12)
  402b60:	48 b8 20 63 6f 6e 6e 	movabs $0x7463656e6e6f6320,%rax
  402b67:	65 63 74 
  402b6a:	48 ba 20 74 6f 20 74 	movabs $0x20656874206f7420,%rdx
  402b71:	68 65 20 
  402b74:	49 89 44 24 10       	mov    %rax,0x10(%r12)
  402b79:	49 89 54 24 18       	mov    %rdx,0x18(%r12)
  402b7e:	41 c7 44 24 20 73 65 	movl   $0x76726573,0x20(%r12)
  402b85:	72 76 
  402b87:	66 41 c7 44 24 24 65 	movw   $0x7265,0x24(%r12)
  402b8e:	72 
  402b8f:	41 c6 44 24 26 00    	movb   $0x0,0x26(%r12)
  402b95:	89 df                	mov    %ebx,%edi
  402b97:	e8 34 e5 ff ff       	callq  4010d0 <close@plt>
  402b9c:	b8 ff ff ff ff       	mov    $0xffffffff,%eax
  402ba1:	e9 b0 fe ff ff       	jmpq   402a56 <submitr+0x30f>
  402ba6:	48 b8 45 72 72 6f 72 	movabs $0x52203a726f727245,%rax
  402bad:	3a 20 52 
  402bb0:	48 ba 65 73 75 6c 74 	movabs $0x747320746c757365,%rdx
  402bb7:	20 73 74 
  402bba:	49 89 04 24          	mov    %rax,(%r12)
  402bbe:	49 89 54 24 08       	mov    %rdx,0x8(%r12)
  402bc3:	48 b8 72 69 6e 67 20 	movabs $0x6f6f7420676e6972,%rax
  402bca:	74 6f 6f 
  402bcd:	48 ba 20 6c 61 72 67 	movabs $0x202e656772616c20,%rdx
  402bd4:	65 2e 20 
  402bd7:	49 89 44 24 10       	mov    %rax,0x10(%r12)
  402bdc:	49 89 54 24 18       	mov    %rdx,0x18(%r12)
  402be1:	48 b8 49 6e 63 72 65 	movabs $0x6573616572636e49,%rax
  402be8:	61 73 65 
  402beb:	48 ba 20 53 55 42 4d 	movabs $0x5254494d42555320,%rdx
  402bf2:	49 54 52 
  402bf5:	49 89 44 24 20       	mov    %rax,0x20(%r12)
  402bfa:	49 89 54 24 28       	mov    %rdx,0x28(%r12)
  402bff:	48 b8 5f 4d 41 58 42 	movabs $0x46554258414d5f,%rax
  402c06:	55 46 00 
  402c09:	49 89 44 24 30       	mov    %rax,0x30(%r12)
  402c0e:	89 df                	mov    %ebx,%edi
  402c10:	e8 bb e4 ff ff       	callq  4010d0 <close@plt>
  402c15:	b8 ff ff ff ff       	mov    $0xffffffff,%eax
  402c1a:	e9 37 fe ff ff       	jmpq   402a56 <submitr+0x30f>
  402c1f:	48 b8 45 72 72 6f 72 	movabs $0x52203a726f727245,%rax
  402c26:	3a 20 52 
  402c29:	48 ba 65 73 75 6c 74 	movabs $0x747320746c757365,%rdx
  402c30:	20 73 74 
  402c33:	49 89 04 24          	mov    %rax,(%r12)
  402c37:	49 89 54 24 08       	mov    %rdx,0x8(%r12)
  402c3c:	48 b8 72 69 6e 67 20 	movabs $0x6e6f6320676e6972,%rax
  402c43:	63 6f 6e 
  402c46:	48 ba 74 61 69 6e 73 	movabs $0x6e6120736e696174,%rdx
  402c4d:	20 61 6e 
  402c50:	49 89 44 24 10       	mov    %rax,0x10(%r12)
  402c55:	49 89 54 24 18       	mov    %rdx,0x18(%r12)
  402c5a:	48 b8 20 69 6c 6c 65 	movabs $0x6c6167656c6c6920,%rax
  402c61:	67 61 6c 
  402c64:	48 ba 20 6f 72 20 75 	movabs $0x72706e7520726f20,%rdx
  402c6b:	6e 70 72 
  402c6e:	49 89 44 24 20       	mov    %rax,0x20(%r12)
  402c73:	49 89 54 24 28       	mov    %rdx,0x28(%r12)
  402c78:	48 b8 69 6e 74 61 62 	movabs $0x20656c6261746e69,%rax
  402c7f:	6c 65 20 
  402c82:	48 ba 63 68 61 72 61 	movabs $0x6574636172616863,%rdx
  402c89:	63 74 65 
  402c8c:	49 89 44 24 30       	mov    %rax,0x30(%r12)
  402c91:	49 89 54 24 38       	mov    %rdx,0x38(%r12)
  402c96:	66 41 c7 44 24 40 72 	movw   $0x2e72,0x40(%r12)
  402c9d:	2e 
  402c9e:	41 c6 44 24 42 00    	movb   $0x0,0x42(%r12)
  402ca4:	89 df                	mov    %ebx,%edi
  402ca6:	e8 25 e4 ff ff       	callq  4010d0 <close@plt>
  402cab:	b8 ff ff ff ff       	mov    $0xffffffff,%eax
  402cb0:	e9 a1 fd ff ff       	jmpq   402a56 <submitr+0x30f>
  402cb5:	48 b8 45 72 72 6f 72 	movabs $0x43203a726f727245,%rax
  402cbc:	3a 20 43 
  402cbf:	48 ba 6c 69 65 6e 74 	movabs $0x6e7520746e65696c,%rdx
  402cc6:	20 75 6e 
  402cc9:	49 89 04 24          	mov    %rax,(%r12)
  402ccd:	49 89 54 24 08       	mov    %rdx,0x8(%r12)
  402cd2:	48 b8 61 62 6c 65 20 	movabs $0x206f7420656c6261,%rax
  402cd9:	74 6f 20 
  402cdc:	48 ba 77 72 69 74 65 	movabs $0x6f74206574697277,%rdx
  402ce3:	20 74 6f 
  402ce6:	49 89 44 24 10       	mov    %rax,0x10(%r12)
  402ceb:	49 89 54 24 18       	mov    %rdx,0x18(%r12)
  402cf0:	48 b8 20 74 68 65 20 	movabs $0x7365722065687420,%rax
  402cf7:	72 65 73 
  402cfa:	48 ba 75 6c 74 20 73 	movabs $0x7672657320746c75,%rdx
  402d01:	65 72 76 
  402d04:	49 89 44 24 20       	mov    %rax,0x20(%r12)
  402d09:	49 89 54 24 28       	mov    %rdx,0x28(%r12)
  402d0e:	66 41 c7 44 24 30 65 	movw   $0x7265,0x30(%r12)
  402d15:	72 
  402d16:	41 c6 44 24 32 00    	movb   $0x0,0x32(%r12)
  402d1c:	89 df                	mov    %ebx,%edi
  402d1e:	e8 ad e3 ff ff       	callq  4010d0 <close@plt>
  402d23:	b8 ff ff ff ff       	mov    $0xffffffff,%eax
  402d28:	e9 29 fd ff ff       	jmpq   402a56 <submitr+0x30f>
  402d2d:	48 b8 45 72 72 6f 72 	movabs $0x43203a726f727245,%rax
  402d34:	3a 20 43 
  402d37:	48 ba 6c 69 65 6e 74 	movabs $0x6e7520746e65696c,%rdx
  402d3e:	20 75 6e 
  402d41:	49 89 04 24          	mov    %rax,(%r12)
  402d45:	49 89 54 24 08       	mov    %rdx,0x8(%r12)
  402d4a:	48 b8 61 62 6c 65 20 	movabs $0x206f7420656c6261,%rax
  402d51:	74 6f 20 
  402d54:	48 ba 72 65 61 64 20 	movabs $0x7269662064616572,%rdx
  402d5b:	66 69 72 
  402d5e:	49 89 44 24 10       	mov    %rax,0x10(%r12)
  402d63:	49 89 54 24 18       	mov    %rdx,0x18(%r12)
  402d68:	48 b8 73 74 20 68 65 	movabs $0x6564616568207473,%rax
  402d6f:	61 64 65 
  402d72:	48 ba 72 20 66 72 6f 	movabs $0x72206d6f72662072,%rdx
  402d79:	6d 20 72 
  402d7c:	49 89 44 24 20       	mov    %rax,0x20(%r12)
  402d81:	49 89 54 24 28       	mov    %rdx,0x28(%r12)
  402d86:	48 b8 65 73 75 6c 74 	movabs $0x657320746c757365,%rax
  402d8d:	20 73 65 
  402d90:	49 89 44 24 30       	mov    %rax,0x30(%r12)
  402d95:	41 c7 44 24 38 72 76 	movl   $0x72657672,0x38(%r12)
  402d9c:	65 72 
  402d9e:	41 c6 44 24 3c 00    	movb   $0x0,0x3c(%r12)
  402da4:	89 df                	mov    %ebx,%edi
  402da6:	e8 25 e3 ff ff       	callq  4010d0 <close@plt>
  402dab:	b8 ff ff ff ff       	mov    $0xffffffff,%eax
  402db0:	e9 a1 fc ff ff       	jmpq   402a56 <submitr+0x30f>
  402db5:	ba 00 20 00 00       	mov    $0x2000,%edx
  402dba:	48 8d b5 c0 7f ff ff 	lea    -0x8040(%rbp),%rsi
  402dc1:	48 8d bd b0 5f ff ff 	lea    -0xa050(%rbp),%rdi
  402dc8:	e8 c5 f7 ff ff       	callq  402592 <rio_readlineb>
  402dcd:	48 85 c0             	test   %rax,%rax
  402dd0:	0f 8e 91 00 00 00    	jle    402e67 <submitr+0x720>
  402dd6:	44 8b 85 9c 5f ff ff 	mov    -0xa064(%rbp),%r8d
  402ddd:	41 81 f8 c8 00 00 00 	cmp    $0xc8,%r8d
  402de4:	0f 85 0d 01 00 00    	jne    402ef7 <submitr+0x7b0>
  402dea:	48 8d b5 c0 7f ff ff 	lea    -0x8040(%rbp),%rsi
  402df1:	4c 89 e7             	mov    %r12,%rdi
  402df4:	e8 67 e2 ff ff       	callq  401060 <strcpy@plt>
  402df9:	89 df                	mov    %ebx,%edi
  402dfb:	e8 d0 e2 ff ff       	callq  4010d0 <close@plt>
  402e00:	bf 5d 47 40 00       	mov    $0x40475d,%edi
  402e05:	b9 04 00 00 00       	mov    $0x4,%ecx
  402e0a:	4c 89 e6             	mov    %r12,%rsi
  402e0d:	f3 a6                	repz cmpsb %es:(%rdi),%ds:(%rsi)
  402e0f:	0f 97 c0             	seta   %al
  402e12:	1c 00                	sbb    $0x0,%al
  402e14:	0f be c0             	movsbl %al,%eax
  402e17:	85 c0                	test   %eax,%eax
  402e19:	0f 84 37 fc ff ff    	je     402a56 <submitr+0x30f>
  402e1f:	bf 61 47 40 00       	mov    $0x404761,%edi
  402e24:	b9 05 00 00 00       	mov    $0x5,%ecx
  402e29:	4c 89 e6             	mov    %r12,%rsi
  402e2c:	f3 a6                	repz cmpsb %es:(%rdi),%ds:(%rsi)
  402e2e:	0f 97 c0             	seta   %al
  402e31:	1c 00                	sbb    $0x0,%al
  402e33:	0f be c0             	movsbl %al,%eax
  402e36:	85 c0                	test   %eax,%eax
  402e38:	0f 84 18 fc ff ff    	je     402a56 <submitr+0x30f>
  402e3e:	bf 66 47 40 00       	mov    $0x404766,%edi
  402e43:	b9 03 00 00 00       	mov    $0x3,%ecx
  402e48:	4c 89 e6             	mov    %r12,%rsi
  402e4b:	f3 a6                	repz cmpsb %es:(%rdi),%ds:(%rsi)
  402e4d:	0f 97 c0             	seta   %al
  402e50:	1c 00                	sbb    $0x0,%al
  402e52:	0f be c0             	movsbl %al,%eax
  402e55:	85 c0                	test   %eax,%eax
  402e57:	0f 84 f9 fb ff ff    	je     402a56 <submitr+0x30f>
  402e5d:	b8 ff ff ff ff       	mov    $0xffffffff,%eax
  402e62:	e9 ef fb ff ff       	jmpq   402a56 <submitr+0x30f>
  402e67:	48 b8 45 72 72 6f 72 	movabs $0x43203a726f727245,%rax
  402e6e:	3a 20 43 
  402e71:	48 ba 6c 69 65 6e 74 	movabs $0x6e7520746e65696c,%rdx
  402e78:	20 75 6e 
  402e7b:	49 89 04 24          	mov    %rax,(%r12)
  402e7f:	49 89 54 24 08       	mov    %rdx,0x8(%r12)
  402e84:	48 b8 61 62 6c 65 20 	movabs $0x206f7420656c6261,%rax
  402e8b:	74 6f 20 
  402e8e:	48 ba 72 65 61 64 20 	movabs $0x6174732064616572,%rdx
  402e95:	73 74 61 
  402e98:	49 89 44 24 10       	mov    %rax,0x10(%r12)
  402e9d:	49 89 54 24 18       	mov    %rdx,0x18(%r12)
  402ea2:	48 b8 74 75 73 20 6d 	movabs $0x7373656d20737574,%rax
  402ea9:	65 73 73 
  402eac:	48 ba 61 67 65 20 66 	movabs $0x6d6f726620656761,%rdx
  402eb3:	72 6f 6d 
  402eb6:	49 89 44 24 20       	mov    %rax,0x20(%r12)
  402ebb:	49 89 54 24 28       	mov    %rdx,0x28(%r12)
  402ec0:	48 b8 20 72 65 73 75 	movabs $0x20746c7573657220,%rax
  402ec7:	6c 74 20 
  402eca:	49 89 44 24 30       	mov    %rax,0x30(%r12)
  402ecf:	41 c7 44 24 38 73 65 	movl   $0x76726573,0x38(%r12)
  402ed6:	72 76 
  402ed8:	66 41 c7 44 24 3c 65 	movw   $0x7265,0x3c(%r12)
  402edf:	72 
  402ee0:	41 c6 44 24 3e 00    	movb   $0x0,0x3e(%r12)
  402ee6:	89 df                	mov    %ebx,%edi
  402ee8:	e8 e3 e1 ff ff       	callq  4010d0 <close@plt>
  402eed:	b8 ff ff ff ff       	mov    $0xffffffff,%eax
  402ef2:	e9 5f fb ff ff       	jmpq   402a56 <submitr+0x30f>
  402ef7:	4c 8d 8d c0 df ff ff 	lea    -0x2040(%rbp),%r9
  402efe:	b9 18 47 40 00       	mov    $0x404718,%ecx
  402f03:	48 c7 c2 ff ff ff ff 	mov    $0xffffffffffffffff,%rdx
  402f0a:	be 01 00 00 00       	mov    $0x1,%esi
  402f0f:	4c 89 e7             	mov    %r12,%rdi
  402f12:	b8 00 00 00 00       	mov    $0x0,%eax
  402f17:	e8 e4 e2 ff ff       	callq  401200 <__sprintf_chk@plt>
  402f1c:	89 df                	mov    %ebx,%edi
  402f1e:	e8 ad e1 ff ff       	callq  4010d0 <close@plt>
  402f23:	b8 ff ff ff ff       	mov    $0xffffffff,%eax
  402f28:	e9 29 fb ff ff       	jmpq   402a56 <submitr+0x30f>
  402f2d:	e8 5e e1 ff ff       	callq  401090 <__stack_chk_fail@plt>

0000000000402f32 <init_timeout>:
  402f32:	85 ff                	test   %edi,%edi
  402f34:	74 26                	je     402f5c <init_timeout+0x2a>
  402f36:	53                   	push   %rbx
  402f37:	89 fb                	mov    %edi,%ebx
  402f39:	85 ff                	test   %edi,%edi
  402f3b:	78 18                	js     402f55 <init_timeout+0x23>
  402f3d:	be 7b 24 40 00       	mov    $0x40247b,%esi
  402f42:	bf 0e 00 00 00       	mov    $0xe,%edi
  402f47:	e8 a4 e1 ff ff       	callq  4010f0 <signal@plt>
  402f4c:	89 df                	mov    %ebx,%edi
  402f4e:	e8 6d e1 ff ff       	callq  4010c0 <alarm@plt>
  402f53:	5b                   	pop    %rbx
  402f54:	c3                   	retq   
  402f55:	bb 00 00 00 00       	mov    $0x0,%ebx
  402f5a:	eb e1                	jmp    402f3d <init_timeout+0xb>
  402f5c:	f3 c3                	repz retq 

0000000000402f5e <init_driver>:
  402f5e:	4c 8d 54 24 08       	lea    0x8(%rsp),%r10
  402f63:	48 83 e4 f0          	and    $0xfffffffffffffff0,%rsp
  402f67:	41 ff 72 f8          	pushq  -0x8(%r10)
  402f6b:	55                   	push   %rbp
  402f6c:	48 89 e5             	mov    %rsp,%rbp
  402f6f:	41 54                	push   %r12
  402f71:	41 52                	push   %r10
  402f73:	53                   	push   %rbx
  402f74:	48 83 ec 28          	sub    $0x28,%rsp
  402f78:	49 89 fc             	mov    %rdi,%r12
  402f7b:	64 48 8b 04 25 28 00 	mov    %fs:0x28,%rax
  402f82:	00 00 
  402f84:	48 89 45 d8          	mov    %rax,-0x28(%rbp)
  402f88:	31 c0                	xor    %eax,%eax
  402f8a:	be 01 00 00 00       	mov    $0x1,%esi
  402f8f:	bf 0d 00 00 00       	mov    $0xd,%edi
  402f94:	e8 57 e1 ff ff       	callq  4010f0 <signal@plt>
  402f99:	be 01 00 00 00       	mov    $0x1,%esi
  402f9e:	bf 1d 00 00 00       	mov    $0x1d,%edi
  402fa3:	e8 48 e1 ff ff       	callq  4010f0 <signal@plt>
  402fa8:	be 01 00 00 00       	mov    $0x1,%esi
  402fad:	bf 1d 00 00 00       	mov    $0x1d,%edi
  402fb2:	e8 39 e1 ff ff       	callq  4010f0 <signal@plt>
  402fb7:	ba 00 00 00 00       	mov    $0x0,%edx
  402fbc:	be 01 00 00 00       	mov    $0x1,%esi
  402fc1:	bf 02 00 00 00       	mov    $0x2,%edi
  402fc6:	e8 45 e2 ff ff       	callq  401210 <socket@plt>
  402fcb:	85 c0                	test   %eax,%eax
  402fcd:	0f 88 a6 00 00 00    	js     403079 <init_driver+0x11b>
  402fd3:	89 c3                	mov    %eax,%ebx
  402fd5:	bf 69 47 40 00       	mov    $0x404769,%edi
  402fda:	e8 21 e1 ff ff       	callq  401100 <gethostbyname@plt>
  402fdf:	48 85 c0             	test   %rax,%rax
  402fe2:	0f 84 e4 00 00 00    	je     4030cc <init_driver+0x16e>
  402fe8:	48 8d 4d c0          	lea    -0x40(%rbp),%rcx
  402fec:	48 c7 45 c2 00 00 00 	movq   $0x0,-0x3e(%rbp)
  402ff3:	00 
  402ff4:	c7 45 ca 00 00 00 00 	movl   $0x0,-0x36(%rbp)
  402ffb:	66 c7 45 ce 00 00    	movw   $0x0,-0x32(%rbp)
  403001:	66 c7 45 c0 02 00    	movw   $0x2,-0x40(%rbp)
  403007:	48 63 50 14          	movslq 0x14(%rax),%rdx
  40300b:	48 8b 40 18          	mov    0x18(%rax),%rax
  40300f:	48 8b 30             	mov    (%rax),%rsi
  403012:	48 8d 79 04          	lea    0x4(%rcx),%rdi
  403016:	b9 0c 00 00 00       	mov    $0xc,%ecx
  40301b:	e8 f0 e0 ff ff       	callq  401110 <__memmove_chk@plt>
  403020:	66 c7 45 c2 3c 9a    	movw   $0x9a3c,-0x3e(%rbp)
  403026:	ba 10 00 00 00       	mov    $0x10,%edx
  40302b:	48 8d 75 c0          	lea    -0x40(%rbp),%rsi
  40302f:	89 df                	mov    %ebx,%edi
  403031:	e8 9a e1 ff ff       	callq  4011d0 <connect@plt>
  403036:	85 c0                	test   %eax,%eax
  403038:	0f 88 00 01 00 00    	js     40313e <init_driver+0x1e0>
  40303e:	89 df                	mov    %ebx,%edi
  403040:	e8 8b e0 ff ff       	callq  4010d0 <close@plt>
  403045:	66 41 c7 04 24 4f 4b 	movw   $0x4b4f,(%r12)
  40304c:	41 c6 44 24 02 00    	movb   $0x0,0x2(%r12)
  403052:	b8 00 00 00 00       	mov    $0x0,%eax
  403057:	48 8b 4d d8          	mov    -0x28(%rbp),%rcx
  40305b:	64 48 33 0c 25 28 00 	xor    %fs:0x28,%rcx
  403062:	00 00 
  403064:	0f 85 2e 01 00 00    	jne    403198 <init_driver+0x23a>
  40306a:	48 83 c4 28          	add    $0x28,%rsp
  40306e:	5b                   	pop    %rbx
  40306f:	41 5a                	pop    %r10
  403071:	41 5c                	pop    %r12
  403073:	5d                   	pop    %rbp
  403074:	49 8d 62 f8          	lea    -0x8(%r10),%rsp
  403078:	c3                   	retq   
  403079:	48 b8 45 72 72 6f 72 	movabs $0x43203a726f727245,%rax
  403080:	3a 20 43 
  403083:	48 ba 6c 69 65 6e 74 	movabs $0x6e7520746e65696c,%rdx
  40308a:	20 75 6e 
  40308d:	49 89 04 24          	mov    %rax,(%r12)
  403091:	49 89 54 24 08       	mov    %rdx,0x8(%r12)
  403096:	48 b8 61 62 6c 65 20 	movabs $0x206f7420656c6261,%rax
  40309d:	74 6f 20 
  4030a0:	48 ba 63 72 65 61 74 	movabs $0x7320657461657263,%rdx
  4030a7:	65 20 73 
  4030aa:	49 89 44 24 10       	mov    %rax,0x10(%r12)
  4030af:	49 89 54 24 18       	mov    %rdx,0x18(%r12)
  4030b4:	41 c7 44 24 20 6f 63 	movl   $0x656b636f,0x20(%r12)
  4030bb:	6b 65 
  4030bd:	66 41 c7 44 24 24 74 	movw   $0x74,0x24(%r12)
  4030c4:	00 
  4030c5:	b8 ff ff ff ff       	mov    $0xffffffff,%eax
  4030ca:	eb 8b                	jmp    403057 <init_driver+0xf9>
  4030cc:	48 b8 45 72 72 6f 72 	movabs $0x44203a726f727245,%rax
  4030d3:	3a 20 44 
  4030d6:	48 ba 4e 53 20 69 73 	movabs $0x6e7520736920534e,%rdx
  4030dd:	20 75 6e 
  4030e0:	49 89 04 24          	mov    %rax,(%r12)
  4030e4:	49 89 54 24 08       	mov    %rdx,0x8(%r12)
  4030e9:	48 b8 61 62 6c 65 20 	movabs $0x206f7420656c6261,%rax
  4030f0:	74 6f 20 
  4030f3:	48 ba 72 65 73 6f 6c 	movabs $0x2065766c6f736572,%rdx
  4030fa:	76 65 20 
  4030fd:	49 89 44 24 10       	mov    %rax,0x10(%r12)
  403102:	49 89 54 24 18       	mov    %rdx,0x18(%r12)
  403107:	48 b8 73 65 72 76 65 	movabs $0x6120726576726573,%rax
  40310e:	72 20 61 
  403111:	49 89 44 24 20       	mov    %rax,0x20(%r12)
  403116:	41 c7 44 24 28 64 64 	movl   $0x65726464,0x28(%r12)
  40311d:	72 65 
  40311f:	66 41 c7 44 24 2c 73 	movw   $0x7373,0x2c(%r12)
  403126:	73 
  403127:	41 c6 44 24 2e 00    	movb   $0x0,0x2e(%r12)
  40312d:	89 df                	mov    %ebx,%edi
  40312f:	e8 9c df ff ff       	callq  4010d0 <close@plt>
  403134:	b8 ff ff ff ff       	mov    $0xffffffff,%eax
  403139:	e9 19 ff ff ff       	jmpq   403057 <init_driver+0xf9>
  40313e:	48 b8 45 72 72 6f 72 	movabs $0x55203a726f727245,%rax
  403145:	3a 20 55 
  403148:	48 ba 6e 61 62 6c 65 	movabs $0x6f7420656c62616e,%rdx
  40314f:	20 74 6f 
  403152:	49 89 04 24          	mov    %rax,(%r12)
  403156:	49 89 54 24 08       	mov    %rdx,0x8(%r12)
  40315b:	48 b8 20 63 6f 6e 6e 	movabs $0x7463656e6e6f6320,%rax
  403162:	65 63 74 
  403165:	48 ba 20 74 6f 20 73 	movabs $0x76726573206f7420,%rdx
  40316c:	65 72 76 
  40316f:	49 89 44 24 10       	mov    %rax,0x10(%r12)
  403174:	49 89 54 24 18       	mov    %rdx,0x18(%r12)
  403179:	66 41 c7 44 24 20 65 	movw   $0x7265,0x20(%r12)
  403180:	72 
  403181:	41 c6 44 24 22 00    	movb   $0x0,0x22(%r12)
  403187:	89 df                	mov    %ebx,%edi
  403189:	e8 42 df ff ff       	callq  4010d0 <close@plt>
  40318e:	b8 ff ff ff ff       	mov    $0xffffffff,%eax
  403193:	e9 bf fe ff ff       	jmpq   403057 <init_driver+0xf9>
  403198:	e8 f3 de ff ff       	callq  401090 <__stack_chk_fail@plt>

000000000040319d <driver_post>:
  40319d:	53                   	push   %rbx
  40319e:	4c 89 cb             	mov    %r9,%rbx
  4031a1:	45 85 c0             	test   %r8d,%r8d
  4031a4:	75 18                	jne    4031be <driver_post+0x21>
  4031a6:	48 85 ff             	test   %rdi,%rdi
  4031a9:	74 05                	je     4031b0 <driver_post+0x13>
  4031ab:	80 3f 00             	cmpb   $0x0,(%rdi)
  4031ae:	75 35                	jne    4031e5 <driver_post+0x48>
  4031b0:	66 c7 03 4f 4b       	movw   $0x4b4f,(%rbx)
  4031b5:	c6 43 02 00          	movb   $0x0,0x2(%rbx)
  4031b9:	44 89 c0             	mov    %r8d,%eax
  4031bc:	5b                   	pop    %rbx
  4031bd:	c3                   	retq   
  4031be:	48 89 ca             	mov    %rcx,%rdx
  4031c1:	be 86 47 40 00       	mov    $0x404786,%esi
  4031c6:	bf 01 00 00 00       	mov    $0x1,%edi
  4031cb:	b8 00 00 00 00       	mov    $0x0,%eax
  4031d0:	e8 ab df ff ff       	callq  401180 <__printf_chk@plt>
  4031d5:	66 c7 03 4f 4b       	movw   $0x4b4f,(%rbx)
  4031da:	c6 43 02 00          	movb   $0x0,0x2(%rbx)
  4031de:	b8 00 00 00 00       	mov    $0x0,%eax
  4031e3:	eb d7                	jmp    4031bc <driver_post+0x1f>
  4031e5:	48 83 ec 08          	sub    $0x8,%rsp
  4031e9:	41 51                	push   %r9
  4031eb:	49 89 c9             	mov    %rcx,%r9
  4031ee:	49 89 d0             	mov    %rdx,%r8
  4031f1:	48 89 f9             	mov    %rdi,%rcx
  4031f4:	48 89 f2             	mov    %rsi,%rdx
  4031f7:	be 9a 3c 00 00       	mov    $0x3c9a,%esi
  4031fc:	bf 69 47 40 00       	mov    $0x404769,%edi
  403201:	e8 41 f5 ff ff       	callq  402747 <submitr>
  403206:	48 83 c4 10          	add    $0x10,%rsp
  40320a:	eb b0                	jmp    4031bc <driver_post+0x1f>

000000000040320c <check>:
  40320c:	89 f8                	mov    %edi,%eax
  40320e:	c1 e8 1c             	shr    $0x1c,%eax
  403211:	85 c0                	test   %eax,%eax
  403213:	74 1d                	je     403232 <check+0x26>
  403215:	b9 00 00 00 00       	mov    $0x0,%ecx
  40321a:	83 f9 1f             	cmp    $0x1f,%ecx
  40321d:	7f 0d                	jg     40322c <check+0x20>
  40321f:	89 f8                	mov    %edi,%eax
  403221:	d3 e8                	shr    %cl,%eax
  403223:	3c 0a                	cmp    $0xa,%al
  403225:	74 11                	je     403238 <check+0x2c>
  403227:	83 c1 08             	add    $0x8,%ecx
  40322a:	eb ee                	jmp    40321a <check+0xe>
  40322c:	b8 01 00 00 00       	mov    $0x1,%eax
  403231:	c3                   	retq   
  403232:	b8 00 00 00 00       	mov    $0x0,%eax
  403237:	c3                   	retq   
  403238:	b8 00 00 00 00       	mov    $0x0,%eax
  40323d:	c3                   	retq   

000000000040323e <gencookie>:
  40323e:	53                   	push   %rbx
  40323f:	83 c7 01             	add    $0x1,%edi
  403242:	e8 f9 dd ff ff       	callq  401040 <srandom@plt>
  403247:	e8 04 df ff ff       	callq  401150 <random@plt>
  40324c:	89 c3                	mov    %eax,%ebx
  40324e:	89 c7                	mov    %eax,%edi
  403250:	e8 b7 ff ff ff       	callq  40320c <check>
  403255:	85 c0                	test   %eax,%eax
  403257:	74 ee                	je     403247 <gencookie+0x9>
  403259:	89 d8                	mov    %ebx,%eax
  40325b:	5b                   	pop    %rbx
  40325c:	c3                   	retq   
  40325d:	0f 1f 00             	nopl   (%rax)

0000000000403260 <__libc_csu_init>:
  403260:	f3 0f 1e fa          	endbr64 
  403264:	41 57                	push   %r15
  403266:	4c 8d 3d a3 3b 00 00 	lea    0x3ba3(%rip),%r15        # 406e10 <__frame_dummy_init_array_entry>
  40326d:	41 56                	push   %r14
  40326f:	49 89 d6             	mov    %rdx,%r14
  403272:	41 55                	push   %r13
  403274:	49 89 f5             	mov    %rsi,%r13
  403277:	41 54                	push   %r12
  403279:	41 89 fc             	mov    %edi,%r12d
  40327c:	55                   	push   %rbp
  40327d:	48 8d 2d 94 3b 00 00 	lea    0x3b94(%rip),%rbp        # 406e18 <__init_array_end>
  403284:	53                   	push   %rbx
  403285:	4c 29 fd             	sub    %r15,%rbp
  403288:	48 83 ec 08          	sub    $0x8,%rsp
  40328c:	e8 6f dd ff ff       	callq  401000 <_init>
  403291:	48 c1 fd 03          	sar    $0x3,%rbp
  403295:	74 1f                	je     4032b6 <__libc_csu_init+0x56>
  403297:	31 db                	xor    %ebx,%ebx
  403299:	0f 1f 80 00 00 00 00 	nopl   0x0(%rax)
  4032a0:	4c 89 f2             	mov    %r14,%rdx
  4032a3:	4c 89 ee             	mov    %r13,%rsi
  4032a6:	44 89 e7             	mov    %r12d,%edi
  4032a9:	41 ff 14 df          	callq  *(%r15,%rbx,8)
  4032ad:	48 83 c3 01          	add    $0x1,%rbx
  4032b1:	48 39 dd             	cmp    %rbx,%rbp
  4032b4:	75 ea                	jne    4032a0 <__libc_csu_init+0x40>
  4032b6:	48 83 c4 08          	add    $0x8,%rsp
  4032ba:	5b                   	pop    %rbx
  4032bb:	5d                   	pop    %rbp
  4032bc:	41 5c                	pop    %r12
  4032be:	41 5d                	pop    %r13
  4032c0:	41 5e                	pop    %r14
  4032c2:	41 5f                	pop    %r15
  4032c4:	c3                   	retq   
  4032c5:	66 66 2e 0f 1f 84 00 	data16 nopw %cs:0x0(%rax,%rax,1)
  4032cc:	00 00 00 00 

00000000004032d0 <__libc_csu_fini>:
  4032d0:	f3 0f 1e fa          	endbr64 
  4032d4:	c3                   	retq   

Disassembly of section .fini:

00000000004032d8 <_fini>:
  4032d8:	f3 0f 1e fa          	endbr64 
  4032dc:	48 83 ec 08          	sub    $0x8,%rsp
  4032e0:	48 83 c4 08          	add    $0x8,%rsp
  4032e4:	c3                   	retq   
